	.file	"console.c"
	.text
.Ltext0:
	.type	inb, @function
inb:
.LFB2:
	.file 1 "x86.h"
	.loc 1 5 0
	.cfi_startproc
.LVL0:
	pushl	%ebp
.LCFI0:
	.cfi_def_cfa_offset 8
	.cfi_offset 5, -8
	movl	%esp, %ebp
.LCFI1:
	.cfi_def_cfa_register 5
	subl	$20, %esp
	movl	8(%ebp), %eax
	movw	%ax, -20(%ebp)
	.loc 1 8 0
	movzwl	-20(%ebp), %eax
	movl	%eax, %edx
#APP
# 8 "x86.h" 1
	in %dx,%al
# 0 "" 2
#NO_APP
	movb	%al, -1(%ebp)
.LVL1:
	.loc 1 9 0
	movzbl	-1(%ebp), %eax
	.loc 1 10 0
	leave
.LCFI2:
	.cfi_restore 5
	.cfi_def_cfa 4, 4
	ret
	.cfi_endproc
.LFE2:
	.size	inb, .-inb
	.type	outb, @function
outb:
.LFB4:
	.loc 1 23 0
	.cfi_startproc
.LVL2:
	pushl	%ebp
.LCFI3:
	.cfi_def_cfa_offset 8
	.cfi_offset 5, -8
	movl	%esp, %ebp
.LCFI4:
	.cfi_def_cfa_register 5
	subl	$8, %esp
	movl	8(%ebp), %edx
	movl	12(%ebp), %eax
	movw	%dx, -4(%ebp)
	movb	%al, -8(%ebp)
	.loc 1 24 0
	movzbl	-8(%ebp), %eax
	movzwl	-4(%ebp), %edx
#APP
# 24 "x86.h" 1
	out %al,%dx
# 0 "" 2
	.loc 1 25 0
#NO_APP
	nop
	leave
.LCFI5:
	.cfi_restore 5
	.cfi_def_cfa 4, 4
	ret
	.cfi_endproc
.LFE4:
	.size	outb, .-outb
	.type	cli, @function
cli:
.LFB14:
	.loc 1 110 0
	.cfi_startproc
	pushl	%ebp
.LCFI6:
	.cfi_def_cfa_offset 8
	.cfi_offset 5, -8
	movl	%esp, %ebp
.LCFI7:
	.cfi_def_cfa_register 5
	.loc 1 111 0
#APP
# 111 "x86.h" 1
	cli
# 0 "" 2
	.loc 1 112 0
#NO_APP
	nop
	popl	%ebp
.LCFI8:
	.cfi_restore 5
	.cfi_def_cfa 4, 4
	ret
	.cfi_endproc
.LFE14:
	.size	cli, .-cli
	.local	panicked
	.comm	panicked,4,4
	.local	cons
	.comm	cons,56,32
	.type	printint, @function
printint:
.LFB20:
	.file 2 "console.c"
	.loc 2 28 0
	.cfi_startproc
.LVL3:
	pushl	%ebp
.LCFI9:
	.cfi_def_cfa_offset 8
	.cfi_offset 5, -8
	movl	%esp, %ebp
.LCFI10:
	.cfi_def_cfa_register 5
	pushl	%ebx
	subl	$36, %esp
	.cfi_offset 3, -12
	.loc 2 34 0
	cmpl	$0, 16(%ebp)
	je	.L6
	.loc 2 34 0 is_stmt 0 discriminator 1
	movl	8(%ebp), %eax
	shrl	$31, %eax
	movzbl	%al, %eax
	movl	%eax, 16(%ebp)
.LVL4:
	cmpl	$0, 16(%ebp)
	je	.L6
	.loc 2 35 0 is_stmt 1
	movl	8(%ebp), %eax
.LVL5:
	negl	%eax
	movl	%eax, -16(%ebp)
.LVL6:
	jmp	.L7
.LVL7:
.L6:
	.loc 2 37 0
	movl	8(%ebp), %eax
	movl	%eax, -16(%ebp)
.LVL8:
.L7:
	.loc 2 39 0
	movl	$0, -12(%ebp)
.LVL9:
.L8:
	.loc 2 41 0 discriminator 1
	movl	-12(%ebp), %ecx
	leal	1(%ecx), %eax
	movl	%eax, -12(%ebp)
.LVL10:
	movl	12(%ebp), %ebx
	movl	-16(%ebp), %eax
.LVL11:
	movl	$0, %edx
	divl	%ebx
	movl	%edx, %eax
	movzbl	digits.1604(%eax), %eax
	movb	%al, -32(%ebp,%ecx)
	.loc 2 42 0 discriminator 1
	movl	12(%ebp), %ebx
	movl	-16(%ebp), %eax
	movl	$0, %edx
	divl	%ebx
	movl	%eax, -16(%ebp)
.LVL12:
	cmpl	$0, -16(%ebp)
	jne	.L8
	.loc 2 44 0
	cmpl	$0, 16(%ebp)
	je	.L10
	.loc 2 45 0
	movl	-12(%ebp), %eax
.LVL13:
	leal	1(%eax), %edx
	movl	%edx, -12(%ebp)
.LVL14:
	movb	$45, -32(%ebp,%eax)
	.loc 2 47 0
	jmp	.L10
.LVL15:
.L11:
	.loc 2 48 0
	leal	-32(%ebp), %edx
	movl	-12(%ebp), %eax
	addl	%edx, %eax
	movzbl	(%eax), %eax
	movsbl	%al, %eax
	subl	$12, %esp
	pushl	%eax
	call	consputc
.LVL16:
	addl	$16, %esp
.L10:
	.loc 2 47 0
	subl	$1, -12(%ebp)
.LVL17:
	cmpl	$0, -12(%ebp)
	jns	.L11
	.loc 2 49 0
	nop
	movl	-4(%ebp), %ebx
	leave
.LCFI11:
	.cfi_restore 5
	.cfi_restore 3
	.cfi_def_cfa 4, 4
	ret
	.cfi_endproc
.LFE20:
	.size	printint, .-printint
	.section	.rodata
.LC0:
	.string	"null fmt"
.LC1:
	.string	"(null)"
	.text
	.globl	cprintf
	.type	cprintf, @function
cprintf:
.LFB21:
	.loc 2 55 0
	.cfi_startproc
.LVL18:
	pushl	%ebp
.LCFI12:
	.cfi_def_cfa_offset 8
	.cfi_offset 5, -8
	movl	%esp, %ebp
.LCFI13:
	.cfi_def_cfa_register 5
	subl	$40, %esp
	.loc 2 60 0
	movl	cons+52, %eax
	movl	%eax, -24(%ebp)
.LVL19:
	.loc 2 61 0
	cmpl	$0, -24(%ebp)
	je	.L13
	.loc 2 62 0
	subl	$12, %esp
	pushl	$cons
	call	acquire
.LVL20:
	addl	$16, %esp
.L13:
	.loc 2 64 0
	movl	8(%ebp), %eax
	testl	%eax, %eax
	jne	.L14
	.loc 2 65 0
	subl	$12, %esp
	pushl	$.LC0
	call	panic
.LVL21:
.L14:
	.loc 2 67 0
	leal	12(%ebp), %eax
	movl	%eax, -16(%ebp)
.LVL22:
	.loc 2 68 0
	movl	$0, -12(%ebp)
.LVL23:
	jmp	.L15
.LVL24:
.L29:
	.loc 2 69 0
	cmpl	$37, -28(%ebp)
	je	.L16
	.loc 2 70 0
	subl	$12, %esp
	pushl	-28(%ebp)
	call	consputc
.LVL25:
	addl	$16, %esp
	.loc 2 71 0
	jmp	.L17
.LVL26:
.L16:
	.loc 2 73 0
	movl	8(%ebp), %edx
	addl	$1, -12(%ebp)
.LVL27:
	movl	-12(%ebp), %eax
.LVL28:
	addl	%edx, %eax
	movzbl	(%eax), %eax
	movsbl	%al, %eax
	andl	$255, %eax
	movl	%eax, -28(%ebp)
.LVL29:
	.loc 2 74 0
	cmpl	$0, -28(%ebp)
	je	.L31
	.loc 2 76 0
	movl	-28(%ebp), %eax
	cmpl	$112, %eax
	je	.L21
	cmpl	$112, %eax
	jg	.L22
	cmpl	$37, %eax
	je	.L23
	cmpl	$100, %eax
	je	.L24
	jmp	.L20
.L22:
	cmpl	$115, %eax
	je	.L25
	cmpl	$120, %eax
	je	.L21
	jmp	.L20
.L24:
	.loc 2 78 0
	movl	-16(%ebp), %eax
.LVL30:
	leal	4(%eax), %edx
	movl	%edx, -16(%ebp)
.LVL31:
	movl	(%eax), %eax
	subl	$4, %esp
	pushl	$1
	pushl	$10
	pushl	%eax
	call	printint
.LVL32:
	addl	$16, %esp
	.loc 2 79 0
	jmp	.L17
.LVL33:
.L21:
	.loc 2 82 0
	movl	-16(%ebp), %eax
.LVL34:
	leal	4(%eax), %edx
	movl	%edx, -16(%ebp)
.LVL35:
	movl	(%eax), %eax
	subl	$4, %esp
	pushl	$0
	pushl	$16
	pushl	%eax
	call	printint
.LVL36:
	addl	$16, %esp
	.loc 2 83 0
	jmp	.L17
.LVL37:
.L25:
	.loc 2 85 0
	movl	-16(%ebp), %eax
.LVL38:
	leal	4(%eax), %edx
	movl	%edx, -16(%ebp)
.LVL39:
	movl	(%eax), %eax
	movl	%eax, -20(%ebp)
.LVL40:
	cmpl	$0, -20(%ebp)
	jne	.L27
	.loc 2 86 0
	movl	$.LC1, -20(%ebp)
.LVL41:
	.loc 2 87 0
	jmp	.L27
.LVL42:
.L28:
	.loc 2 88 0 discriminator 2
	movl	-20(%ebp), %eax
	movzbl	(%eax), %eax
	movsbl	%al, %eax
	subl	$12, %esp
	pushl	%eax
	call	consputc
.LVL43:
	addl	$16, %esp
	.loc 2 87 0 discriminator 2
	addl	$1, -20(%ebp)
.L27:
	.loc 2 87 0 is_stmt 0 discriminator 1
	movl	-20(%ebp), %eax
	movzbl	(%eax), %eax
	testb	%al, %al
	jne	.L28
	.loc 2 89 0 is_stmt 1
	jmp	.L17
.LVL44:
.L23:
	.loc 2 91 0
	subl	$12, %esp
	pushl	$37
	call	consputc
.LVL45:
	addl	$16, %esp
	.loc 2 92 0
	jmp	.L17
.LVL46:
.L20:
	.loc 2 95 0
	subl	$12, %esp
	pushl	$37
	call	consputc
.LVL47:
	addl	$16, %esp
	.loc 2 96 0
	subl	$12, %esp
	pushl	-28(%ebp)
	call	consputc
.LVL48:
	addl	$16, %esp
	.loc 2 97 0
	nop
.L17:
	.loc 2 68 0 discriminator 2
	addl	$1, -12(%ebp)
.LVL49:
.L15:
	.loc 2 68 0 is_stmt 0 discriminator 1
	movl	8(%ebp), %edx
	movl	-12(%ebp), %eax
	addl	%edx, %eax
	movzbl	(%eax), %eax
	movsbl	%al, %eax
	andl	$255, %eax
	movl	%eax, -28(%ebp)
.LVL50:
	cmpl	$0, -28(%ebp)
	jne	.L29
	jmp	.L19
.L31:
	.loc 2 75 0 is_stmt 1
	nop
.L19:
	.loc 2 101 0
	cmpl	$0, -24(%ebp)
	je	.L32
	.loc 2 102 0
	subl	$12, %esp
	pushl	$cons
	call	release
.LVL51:
	addl	$16, %esp
.L32:
	.loc 2 103 0
	nop
	leave
.LCFI14:
	.cfi_restore 5
	.cfi_def_cfa 4, 4
	ret
	.cfi_endproc
.LFE21:
	.size	cprintf, .-cprintf
	.section	.rodata
.LC2:
	.string	"cpu%d: panic: "
.LC3:
	.string	"\n"
.LC4:
	.string	" %p"
	.text
	.globl	panic
	.type	panic, @function
panic:
.LFB22:
	.loc 2 107 0
	.cfi_startproc
.LVL52:
	pushl	%ebp
.LCFI15:
	.cfi_def_cfa_offset 8
	.cfi_offset 5, -8
	movl	%esp, %ebp
.LCFI16:
	.cfi_def_cfa_register 5
	subl	$56, %esp
	.loc 2 111 0
	call	cli
.LVL53:
	.loc 2 112 0
	movl	$0, cons+52
	.loc 2 113 0
	movl	%gs:0, %eax
	movzbl	(%eax), %eax
	movzbl	%al, %eax
	subl	$8, %esp
	pushl	%eax
	pushl	$.LC2
	call	cprintf
.LVL54:
	addl	$16, %esp
	.loc 2 114 0
	movl	8(%ebp), %eax
	subl	$12, %esp
	pushl	%eax
	call	cprintf
.LVL55:
	addl	$16, %esp
	.loc 2 115 0
	subl	$12, %esp
	pushl	$.LC3
	call	cprintf
.LVL56:
	addl	$16, %esp
	.loc 2 116 0
	subl	$8, %esp
	leal	-52(%ebp), %eax
	pushl	%eax
	leal	8(%ebp), %eax
.LVL57:
	pushl	%eax
	call	getcallerpcs
.LVL58:
	addl	$16, %esp
	.loc 2 117 0
	movl	$0, -12(%ebp)
.LVL59:
	jmp	.L34
.L35:
	.loc 2 118 0 discriminator 3
	movl	-12(%ebp), %eax
	movl	-52(%ebp,%eax,4), %eax
	subl	$8, %esp
	pushl	%eax
	pushl	$.LC4
	call	cprintf
.LVL60:
	addl	$16, %esp
	.loc 2 117 0 discriminator 3
	addl	$1, -12(%ebp)
.L34:
	.loc 2 117 0 is_stmt 0 discriminator 1
	cmpl	$9, -12(%ebp)
	jle	.L35
	.loc 2 119 0 is_stmt 1
	movl	$1, panicked
.L36:
	.loc 2 121 0 discriminator 1
	jmp	.L36
	.cfi_endproc
.LFE22:
	.size	panic, .-panic
	.data
	.align 4
	.type	crt, @object
	.size	crt, 4
crt:
	.long	-2146729984
	.section	.rodata
.LC5:
	.string	"pos under/overflow"
	.text
	.type	cgaputc, @function
cgaputc:
.LFB23:
	.loc 2 131 0
	.cfi_startproc
.LVL61:
	pushl	%ebp
.LCFI17:
	.cfi_def_cfa_offset 8
	.cfi_offset 5, -8
	movl	%esp, %ebp
.LCFI18:
	.cfi_def_cfa_register 5
	subl	$24, %esp
	.loc 2 135 0
	pushl	$14
	pushl	$980
	call	outb
.LVL62:
	addl	$8, %esp
	.loc 2 136 0
	pushl	$981
	call	inb
.LVL63:
	addl	$4, %esp
	movzbl	%al, %eax
	sall	$8, %eax
	movl	%eax, -12(%ebp)
.LVL64:
	.loc 2 137 0
	pushl	$15
	pushl	$980
	call	outb
.LVL65:
	addl	$8, %esp
	.loc 2 138 0
	pushl	$981
	call	inb
.LVL66:
	addl	$4, %esp
	movzbl	%al, %eax
	orl	%eax, -12(%ebp)
	.loc 2 140 0
	cmpl	$10, 8(%ebp)
	jne	.L38
	.loc 2 141 0
	movl	-12(%ebp), %ecx
	movl	$1717986919, %edx
	movl	%ecx, %eax
	imull	%edx
	sarl	$5, %edx
	movl	%ecx, %eax
	sarl	$31, %eax
	subl	%eax, %edx
	movl	%edx, %eax
	sall	$2, %eax
	addl	%edx, %eax
	sall	$4, %eax
	subl	%eax, %ecx
	movl	%ecx, %edx
	movl	$80, %eax
	subl	%edx, %eax
	addl	%eax, -12(%ebp)
.LVL67:
	jmp	.L39
.L38:
	.loc 2 142 0
	cmpl	$256, 8(%ebp)
	jne	.L40
	.loc 2 143 0
	cmpl	$0, -12(%ebp)
	jle	.L39
	.loc 2 143 0 is_stmt 0 discriminator 1
	subl	$1, -12(%ebp)
.LVL68:
	jmp	.L39
.L40:
	.loc 2 145 0 is_stmt 1
	movl	crt, %ecx
	movl	-12(%ebp), %eax
	leal	1(%eax), %edx
	movl	%edx, -12(%ebp)
.LVL69:
	addl	%eax, %eax
	addl	%ecx, %eax
	movl	8(%ebp), %edx
.LVL70:
	movzbl	%dl, %edx
	orb	$7, %dh
	movw	%dx, (%eax)
.L39:
	.loc 2 147 0
	cmpl	$0, -12(%ebp)
	js	.L42
	.loc 2 147 0 is_stmt 0 discriminator 1
	cmpl	$2000, -12(%ebp)
	jle	.L43
.L42:
	.loc 2 148 0 is_stmt 1
	subl	$12, %esp
	pushl	$.LC5
	call	panic
.LVL71:
.L43:
	.loc 2 150 0
	cmpl	$1919, -12(%ebp)
	jle	.L44
	.loc 2 151 0
	movl	crt, %eax
	leal	160(%eax), %edx
	movl	crt, %eax
	subl	$4, %esp
	pushl	$3680
	pushl	%edx
	pushl	%eax
	call	memmove
.LVL72:
	addl	$16, %esp
	.loc 2 152 0
	subl	$80, -12(%ebp)
	.loc 2 153 0
	movl	$1920, %eax
	subl	-12(%ebp), %eax
	leal	(%eax,%eax), %edx
	movl	crt, %eax
	movl	-12(%ebp), %ecx
	addl	%ecx, %ecx
	addl	%ecx, %eax
	subl	$4, %esp
	pushl	%edx
	pushl	$0
	pushl	%eax
	call	memset
.LVL73:
	addl	$16, %esp
.L44:
	.loc 2 156 0
	subl	$8, %esp
	pushl	$14
	pushl	$980
	call	outb
.LVL74:
	addl	$16, %esp
	.loc 2 157 0
	movl	-12(%ebp), %eax
	sarl	$8, %eax
	movzbl	%al, %eax
	subl	$8, %esp
	pushl	%eax
	pushl	$981
	call	outb
.LVL75:
	addl	$16, %esp
	.loc 2 158 0
	subl	$8, %esp
	pushl	$15
	pushl	$980
	call	outb
.LVL76:
	addl	$16, %esp
	.loc 2 159 0
	movl	-12(%ebp), %eax
	movzbl	%al, %eax
	subl	$8, %esp
	pushl	%eax
	pushl	$981
	call	outb
.LVL77:
	addl	$16, %esp
	.loc 2 160 0
	movl	crt, %eax
	movl	-12(%ebp), %edx
	addl	%edx, %edx
	addl	%edx, %eax
	movw	$1824, (%eax)
	.loc 2 161 0
	nop
	leave
.LCFI19:
	.cfi_restore 5
	.cfi_def_cfa 4, 4
	ret
	.cfi_endproc
.LFE23:
	.size	cgaputc, .-cgaputc
	.type	consputc, @function
consputc:
.LFB24:
	.loc 2 165 0
	.cfi_startproc
.LVL78:
	pushl	%ebp
.LCFI20:
	.cfi_def_cfa_offset 8
	.cfi_offset 5, -8
	movl	%esp, %ebp
.LCFI21:
	.cfi_def_cfa_register 5
	subl	$8, %esp
	.loc 2 166 0
	movl	panicked, %eax
	testl	%eax, %eax
	je	.L46
	.loc 2 167 0
	call	cli
.LVL79:
.L47:
	.loc 2 169 0 discriminator 1
	jmp	.L47
.L46:
	.loc 2 172 0
	cmpl	$256, 8(%ebp)
	jne	.L48
	.loc 2 173 0
	subl	$12, %esp
	pushl	$8
	call	uartputc
.LVL80:
	addl	$16, %esp
	subl	$12, %esp
	pushl	$32
	call	uartputc
.LVL81:
	addl	$16, %esp
	subl	$12, %esp
	pushl	$8
	call	uartputc
.LVL82:
	addl	$16, %esp
	jmp	.L49
.L48:
	.loc 2 175 0
	subl	$12, %esp
	pushl	8(%ebp)
	call	uartputc
.LVL83:
	addl	$16, %esp
.L49:
	.loc 2 176 0
	subl	$12, %esp
	pushl	8(%ebp)
	call	cgaputc
.LVL84:
	addl	$16, %esp
	.loc 2 177 0
	nop
	leave
.LCFI22:
	.cfi_restore 5
	.cfi_def_cfa 4, 4
	ret
	.cfi_endproc
.LFE24:
	.size	consputc, .-consputc
	.comm	input,140,32
	.globl	consoleintr
	.type	consoleintr, @function
consoleintr:
.LFB25:
	.loc 2 191 0
	.cfi_startproc
.LVL85:
	pushl	%ebp
.LCFI23:
	.cfi_def_cfa_offset 8
	.cfi_offset 5, -8
	movl	%esp, %ebp
.LCFI24:
	.cfi_def_cfa_register 5
	subl	$24, %esp
	.loc 2 192 0
	movl	$0, -12(%ebp)
.LVL86:
	.loc 2 194 0
	subl	$12, %esp
	pushl	$cons
	call	acquire
.LVL87:
	addl	$16, %esp
	.loc 2 195 0
	jmp	.L51
.LVL88:
.L65:
	.loc 2 196 0
	movl	-16(%ebp), %eax
.LVL89:
	cmpl	$16, %eax
	je	.L53
	cmpl	$16, %eax
	jg	.L54
	cmpl	$8, %eax
	je	.L55
	jmp	.L52
.L54:
	cmpl	$21, %eax
	je	.L57
	cmpl	$127, %eax
	je	.L55
	jmp	.L52
.L53:
	.loc 2 198 0
	movl	$1, -12(%ebp)
	.loc 2 199 0
	jmp	.L51
.L59:
	.loc 2 203 0
	movl	input+136, %eax
	subl	$1, %eax
	movl	%eax, input+136
	.loc 2 204 0
	subl	$12, %esp
	pushl	$256
	call	consputc
.LVL90:
	addl	$16, %esp
.L57:
	.loc 2 201 0
	movl	input+136, %edx
	movl	input+132, %eax
	cmpl	%eax, %edx
	je	.L51
	.loc 2 202 0 discriminator 1
	movl	input+136, %eax
	subl	$1, %eax
	andl	$127, %eax
	movzbl	input(%eax), %eax
	.loc 2 201 0 discriminator 1
	cmpb	$10, %al
	jne	.L59
	.loc 2 206 0
	jmp	.L51
.L55:
	.loc 2 208 0
	movl	input+136, %edx
	movl	input+132, %eax
	cmpl	%eax, %edx
	je	.L51
	.loc 2 209 0
	movl	input+136, %eax
	subl	$1, %eax
	movl	%eax, input+136
	.loc 2 210 0
	subl	$12, %esp
	pushl	$256
	call	consputc
.LVL91:
	addl	$16, %esp
	.loc 2 212 0
	jmp	.L51
.L52:
	.loc 2 214 0
	cmpl	$0, -16(%ebp)
	je	.L68
	.loc 2 214 0 is_stmt 0 discriminator 1
	movl	input+136, %edx
	movl	input+128, %eax
	subl	%eax, %edx
	movl	%edx, %eax
	cmpl	$127, %eax
	ja	.L68
	.loc 2 215 0 is_stmt 1
	cmpl	$13, -16(%ebp)
	je	.L62
	.loc 2 215 0 is_stmt 0 discriminator 1
	movl	-16(%ebp), %eax
	jmp	.L63
.L62:
	.loc 2 215 0 discriminator 2
	movl	$10, %eax
.L63:
	.loc 2 215 0 discriminator 4
	movl	%eax, -16(%ebp)
.LVL92:
	.loc 2 216 0 is_stmt 1 discriminator 4
	movl	input+136, %eax
.LVL93:
	leal	1(%eax), %edx
	movl	%edx, input+136
	andl	$127, %eax
	movl	-16(%ebp), %edx
	movb	%dl, input(%eax)
	.loc 2 217 0 discriminator 4
	subl	$12, %esp
	pushl	-16(%ebp)
	call	consputc
.LVL94:
	addl	$16, %esp
	.loc 2 218 0 discriminator 4
	cmpl	$10, -16(%ebp)
	je	.L64
	.loc 2 218 0 is_stmt 0 discriminator 1
	cmpl	$4, -16(%ebp)
	je	.L64
	.loc 2 218 0 discriminator 2
	movl	input+136, %eax
	movl	input+128, %edx
	subl	$-128, %edx
	cmpl	%edx, %eax
	jne	.L68
.L64:
	.loc 2 219 0 is_stmt 1
	movl	input+136, %eax
	movl	%eax, input+132
	.loc 2 220 0
	subl	$12, %esp
	pushl	$input+128
	call	wakeup
.LVL95:
	addl	$16, %esp
.L68:
	.loc 2 223 0
	nop
.LVL96:
.L51:
	.loc 2 195 0
	movl	8(%ebp), %eax
	call	*%eax
.LVL97:
	movl	%eax, -16(%ebp)
.LVL98:
	cmpl	$0, -16(%ebp)
	jns	.L65
	.loc 2 226 0
	subl	$12, %esp
	pushl	$cons
	call	release
.LVL99:
	addl	$16, %esp
	.loc 2 227 0
	cmpl	$0, -12(%ebp)
	je	.L67
	.loc 2 228 0
	call	procdump
.LVL100:
.L67:
	.loc 2 230 0
	nop
	leave
.LCFI25:
	.cfi_restore 5
	.cfi_def_cfa 4, 4
	ret
	.cfi_endproc
.LFE25:
	.size	consoleintr, .-consoleintr
	.globl	consoleread
	.type	consoleread, @function
consoleread:
.LFB26:
	.loc 2 234 0
	.cfi_startproc
.LVL101:
	pushl	%ebp
.LCFI26:
	.cfi_def_cfa_offset 8
	.cfi_offset 5, -8
	movl	%esp, %ebp
.LCFI27:
	.cfi_def_cfa_register 5
	subl	$24, %esp
	.loc 2 238 0
	subl	$12, %esp
	pushl	8(%ebp)
	call	iunlock
.LVL102:
	addl	$16, %esp
	.loc 2 239 0
	movl	16(%ebp), %eax
	movl	%eax, -12(%ebp)
.LVL103:
	.loc 2 240 0
	subl	$12, %esp
	pushl	$cons
	call	acquire
.LVL104:
	addl	$16, %esp
	.loc 2 241 0
	jmp	.L70
.L74:
	.loc 2 243 0
	movl	%gs:4, %eax
	movl	36(%eax), %eax
	testl	%eax, %eax
	je	.L72
	.loc 2 244 0
	subl	$12, %esp
	pushl	$cons
	call	release
.LVL105:
	addl	$16, %esp
	.loc 2 245 0
	subl	$12, %esp
	pushl	8(%ebp)
	call	ilock
.LVL106:
	addl	$16, %esp
	.loc 2 246 0
	movl	$-1, %eax
	jmp	.L73
.L72:
	.loc 2 248 0
	subl	$8, %esp
	pushl	$cons
	pushl	$input+128
	call	sleep
.LVL107:
	addl	$16, %esp
.L71:
	.loc 2 242 0
	movl	input+128, %edx
	movl	input+132, %eax
	cmpl	%eax, %edx
	je	.L74
	.loc 2 250 0
	movl	input+128, %eax
	leal	1(%eax), %edx
	movl	%edx, input+128
	andl	$127, %eax
	movzbl	input(%eax), %eax
	movsbl	%al, %eax
	movl	%eax, -16(%ebp)
.LVL108:
	.loc 2 251 0
	cmpl	$4, -16(%ebp)
	jne	.L75
	.loc 2 252 0
	movl	16(%ebp), %eax
.LVL109:
	cmpl	-12(%ebp), %eax
	jnb	.L79
	.loc 2 255 0
	movl	input+128, %eax
	subl	$1, %eax
	movl	%eax, input+128
	.loc 2 257 0
	jmp	.L79
.LVL110:
.L75:
	.loc 2 259 0
	movl	12(%ebp), %eax
.LVL111:
	leal	1(%eax), %edx
	movl	%edx, 12(%ebp)
.LVL112:
	movl	-16(%ebp), %edx
.LVL113:
	movb	%dl, (%eax)
	.loc 2 260 0
	subl	$1, 16(%ebp)
	.loc 2 261 0
	cmpl	$10, -16(%ebp)
	je	.L80
.LVL114:
.L70:
	.loc 2 241 0
	cmpl	$0, 16(%ebp)
	jg	.L71
	jmp	.L77
.LVL115:
.L79:
	.loc 2 257 0
	nop
	jmp	.L77
.L80:
	.loc 2 262 0
	nop
.LVL116:
.L77:
	.loc 2 264 0
	subl	$12, %esp
	pushl	$cons
	call	release
.LVL117:
	addl	$16, %esp
	.loc 2 265 0
	subl	$12, %esp
	pushl	8(%ebp)
	call	ilock
.LVL118:
	addl	$16, %esp
	.loc 2 267 0
	movl	16(%ebp), %eax
	movl	-12(%ebp), %edx
	subl	%eax, %edx
	movl	%edx, %eax
.L73:
	.loc 2 268 0
	leave
.LCFI28:
	.cfi_restore 5
	.cfi_def_cfa 4, 4
	ret
	.cfi_endproc
.LFE26:
	.size	consoleread, .-consoleread
	.globl	consolewrite
	.type	consolewrite, @function
consolewrite:
.LFB27:
	.loc 2 272 0
	.cfi_startproc
.LVL119:
	pushl	%ebp
.LCFI29:
	.cfi_def_cfa_offset 8
	.cfi_offset 5, -8
	movl	%esp, %ebp
.LCFI30:
	.cfi_def_cfa_register 5
	subl	$24, %esp
	.loc 2 275 0
	subl	$12, %esp
	pushl	8(%ebp)
	call	iunlock
.LVL120:
	addl	$16, %esp
	.loc 2 276 0
	subl	$12, %esp
	pushl	$cons
	call	acquire
.LVL121:
	addl	$16, %esp
	.loc 2 277 0
	movl	$0, -12(%ebp)
.LVL122:
	jmp	.L82
.LVL123:
.L83:
	.loc 2 278 0 discriminator 3
	movl	-12(%ebp), %edx
	movl	12(%ebp), %eax
.LVL124:
	addl	%edx, %eax
	movzbl	(%eax), %eax
	movsbl	%al, %eax
	movzbl	%al, %eax
	subl	$12, %esp
	pushl	%eax
	call	consputc
.LVL125:
	addl	$16, %esp
	.loc 2 277 0 discriminator 3
	addl	$1, -12(%ebp)
.L82:
	.loc 2 277 0 is_stmt 0 discriminator 1
	movl	-12(%ebp), %eax
	cmpl	16(%ebp), %eax
	jl	.L83
	.loc 2 279 0 is_stmt 1
	subl	$12, %esp
	pushl	$cons
	call	release
.LVL126:
	addl	$16, %esp
	.loc 2 280 0
	subl	$12, %esp
	pushl	8(%ebp)
	call	ilock
.LVL127:
	addl	$16, %esp
	.loc 2 282 0
	movl	16(%ebp), %eax
	.loc 2 283 0
	leave
.LCFI31:
	.cfi_restore 5
	.cfi_def_cfa 4, 4
	ret
	.cfi_endproc
.LFE27:
	.size	consolewrite, .-consolewrite
	.section	.rodata
.LC6:
	.string	"console"
	.text
	.globl	consoleinit
	.type	consoleinit, @function
consoleinit:
.LFB28:
	.loc 2 287 0
	.cfi_startproc
	pushl	%ebp
.LCFI32:
	.cfi_def_cfa_offset 8
	.cfi_offset 5, -8
	movl	%esp, %ebp
.LCFI33:
	.cfi_def_cfa_register 5
	subl	$8, %esp
	.loc 2 288 0
	subl	$8, %esp
	pushl	$.LC6
	pushl	$cons
	call	initlock
.LVL128:
	addl	$16, %esp
	.loc 2 290 0
	movl	$consolewrite, devsw+12
	.loc 2 291 0
	movl	$consoleread, devsw+8
	.loc 2 292 0
	movl	$1, cons+52
	.loc 2 294 0
	subl	$12, %esp
	pushl	$1
	call	picenable
.LVL129:
	addl	$16, %esp
	.loc 2 295 0
	subl	$8, %esp
	pushl	$0
	pushl	$1
	call	ioapicenable
.LVL130:
	addl	$16, %esp
	.loc 2 296 0
	nop
	leave
.LCFI34:
	.cfi_restore 5
	.cfi_def_cfa 4, 4
	ret
	.cfi_endproc
.LFE28:
	.size	consoleinit, .-consoleinit
	.data
	.align 4
	.type	digits.1604, @object
	.size	digits.1604, 17
digits.1604:
	.string	"0123456789abcdef"
	.text
.Letext0:
	.file 3 "types.h"
	.file 4 "spinlock.h"
	.file 5 "proc.h"
	.file 6 "file.h"
	.file 7 "mmu.h"
	.file 8 "defs.h"
	.section	.note.GNU-stack,"",@progbits
