	.file	"cs550_user.c"
	.text
.Ltext0:
	.section	.rodata
	.align 4
.LC0:
	.string	"After Calling date %d %d %d %d %d %d \n"
	.text
	.globl	test_date
	.type	test_date, @function
test_date:
.LFB0:
	.file 1 "cs550_user.c"
	.loc 1 10 0
	.cfi_startproc
	pushl	%ebp
.LCFI0:
	.cfi_def_cfa_offset 8
	.cfi_offset 5, -8
	movl	%esp, %ebp
.LCFI1:
	.cfi_def_cfa_register 5
	pushl	%edi
	pushl	%esi
	pushl	%ebx
	subl	$28, %esp
	.cfi_offset 7, -12
	.cfi_offset 6, -16
	.cfi_offset 3, -20
	.loc 1 11 0
	subl	$12, %esp
	pushl	$24
	call	malloc
.LVL0:
	addl	$16, %esp
	movl	%eax, -28(%ebp)
.LVL1:
	.loc 1 12 0
	subl	$12, %esp
	pushl	-28(%ebp)
	call	date
.LVL2:
	addl	$16, %esp
	.loc 1 13 0
	movl	-28(%ebp), %eax
	movl	20(%eax), %edi
	movl	-28(%ebp), %eax
	movl	16(%eax), %esi
	movl	-28(%ebp), %eax
	movl	12(%eax), %ebx
	movl	-28(%ebp), %eax
	movl	8(%eax), %ecx
	movl	-28(%ebp), %eax
	movl	4(%eax), %edx
	movl	-28(%ebp), %eax
	movl	(%eax), %eax
	pushl	%edi
	pushl	%esi
	pushl	%ebx
	pushl	%ecx
	pushl	%edx
	pushl	%eax
	pushl	$.LC0
	pushl	$1
	call	printf
.LVL3:
	addl	$32, %esp
	.loc 1 14 0
	nop
	leal	-12(%ebp), %esp
	popl	%ebx
	.cfi_restore 3
	popl	%esi
	.cfi_restore 6
	popl	%edi
	.cfi_restore 7
	popl	%ebp
.LCFI2:
	.cfi_restore 5
	.cfi_def_cfa 4, 4
.LVL4:
	ret
	.cfi_endproc
.LFE0:
	.size	test_date, .-test_date
	.section	.rodata
	.align 4
.LC1:
	.string	" Time Calculated doing getpid %d\n"
	.text
	.globl	test_getpid
	.type	test_getpid, @function
test_getpid:
.LFB1:
	.loc 1 16 0
	.cfi_startproc
	pushl	%ebp
.LCFI3:
	.cfi_def_cfa_offset 8
	.cfi_offset 5, -8
	movl	%esp, %ebp
.LCFI4:
	.cfi_def_cfa_register 5
	subl	$24, %esp
	.loc 1 17 0
	movl	$0, -12(%ebp)
.LVL5:
	.loc 1 19 0
	call	uptime
.LVL6:
	imull	$1000000000, %eax, %eax
	movl	%eax, -16(%ebp)
.LVL7:
	.loc 1 21 0
	movl	$0, -12(%ebp)
	jmp	.L3
.LVL8:
.L4:
	.loc 1 22 0 discriminator 3
	call	getpid
.LVL9:
	.loc 1 21 0 discriminator 3
	addl	$1, -12(%ebp)
.L3:
	.loc 1 21 0 is_stmt 0 discriminator 1
	cmpl	$99999, -12(%ebp)
	jle	.L4
	.loc 1 24 0 is_stmt 1
	call	uptime
.LVL10:
	imull	$1000000000, %eax, %eax
	movl	%eax, -20(%ebp)
.LVL11:
	.loc 1 25 0
	movl	-20(%ebp), %eax
	subl	-16(%ebp), %eax
.LVL12:
	shrl	$5, %eax
	movl	$175921861, %edx
	mull	%edx
	movl	%edx, %eax
	shrl	$7, %eax
	movl	%eax, -24(%ebp)
.LVL13:
	.loc 1 26 0
	subl	$4, %esp
	pushl	-24(%ebp)
	pushl	$.LC1
	pushl	$1
	call	printf
.LVL14:
	addl	$16, %esp
	.loc 1 27 0
	nop
	leave
.LCFI5:
	.cfi_restore 5
	.cfi_def_cfa 4, 4
.LVL15:
	ret
	.cfi_endproc
.LFE1:
	.size	test_getpid, .-test_getpid
	.section	.rodata
.LC2:
	.string	" Calling ls cal1 01 %d\n"
	.text
	.globl	call01_ls
	.type	call01_ls, @function
call01_ls:
.LFB2:
	.loc 1 29 0
	.cfi_startproc
	pushl	%ebp
.LCFI6:
	.cfi_def_cfa_offset 8
	.cfi_offset 5, -8
	movl	%esp, %ebp
.LCFI7:
	.cfi_def_cfa_register 5
	subl	$24, %esp
	.loc 1 30 0
	movl	$0, -12(%ebp)
.LVL16:
	.loc 1 31 0
	call	ls_call1
.LVL17:
	movl	%eax, -12(%ebp)
.LVL18:
	.loc 1 32 0
	subl	$4, %esp
	pushl	-12(%ebp)
	pushl	$.LC2
	pushl	$1
	call	printf
.LVL19:
	addl	$16, %esp
	.loc 1 33 0
	nop
	leave
.LCFI8:
	.cfi_restore 5
	.cfi_def_cfa 4, 4
.LVL20:
	ret
	.cfi_endproc
.LFE2:
	.size	call01_ls, .-call01_ls
	.section	.rodata
.LC3:
	.string	" Calling ls cal1 05 %d\n"
	.text
	.globl	call50_ls
	.type	call50_ls, @function
call50_ls:
.LFB3:
	.loc 1 35 0
	.cfi_startproc
	pushl	%ebp
.LCFI9:
	.cfi_def_cfa_offset 8
	.cfi_offset 5, -8
	movl	%esp, %ebp
.LCFI10:
	.cfi_def_cfa_register 5
	subl	$24, %esp
	.loc 1 36 0
	movl	$0, -12(%ebp)
.LVL21:
	.loc 1 37 0
	call	ls_call50
.LVL22:
	movl	%eax, -12(%ebp)
.LVL23:
	.loc 1 38 0
	subl	$4, %esp
	pushl	-12(%ebp)
	pushl	$.LC3
	pushl	$1
	call	printf
.LVL24:
	addl	$16, %esp
	.loc 1 39 0
	nop
	leave
.LCFI11:
	.cfi_restore 5
	.cfi_def_cfa 4, 4
.LVL25:
	ret
	.cfi_endproc
.LFE3:
	.size	call50_ls, .-call50_ls
	.section	.rodata
	.align 4
.LC4:
	.string	" Time Calculated doing linear %d\n"
	.text
	.globl	ls_linear_time
	.type	ls_linear_time, @function
ls_linear_time:
.LFB4:
	.loc 1 41 0
	.cfi_startproc
	pushl	%ebp
.LCFI12:
	.cfi_def_cfa_offset 8
	.cfi_offset 5, -8
	movl	%esp, %ebp
.LCFI13:
	.cfi_def_cfa_register 5
	subl	$24, %esp
	.loc 1 42 0
	movl	$0, -12(%ebp)
.LVL26:
	.loc 1 44 0
	call	uptime
.LVL27:
	imull	$1000000000, %eax, %eax
	movl	%eax, -16(%ebp)
.LVL28:
	.loc 1 46 0
	movl	$0, -12(%ebp)
	jmp	.L8
.LVL29:
.L9:
	.loc 1 47 0 discriminator 3
	call	ls_call22
.LVL30:
	.loc 1 46 0 discriminator 3
	addl	$1, -12(%ebp)
.L8:
	.loc 1 46 0 is_stmt 0 discriminator 1
	cmpl	$99999, -12(%ebp)
	jle	.L9
	.loc 1 49 0 is_stmt 1
	call	uptime
.LVL31:
	imull	$1000000000, %eax, %eax
	movl	%eax, -20(%ebp)
.LVL32:
	.loc 1 50 0
	movl	-20(%ebp), %eax
	subl	-16(%ebp), %eax
.LVL33:
	shrl	$5, %eax
	movl	$175921861, %edx
	mull	%edx
	movl	%edx, %eax
	shrl	$7, %eax
	movl	%eax, -24(%ebp)
.LVL34:
	.loc 1 51 0
	subl	$4, %esp
	pushl	-24(%ebp)
	pushl	$.LC4
	pushl	$1
	call	printf
.LVL35:
	addl	$16, %esp
	.loc 1 52 0
	nop
	leave
.LCFI14:
	.cfi_restore 5
	.cfi_def_cfa 4, 4
.LVL36:
	ret
	.cfi_endproc
.LFE4:
	.size	ls_linear_time, .-ls_linear_time
	.section	.rodata
.LC5:
	.string	" Calling ls cal1 03 %d\n"
	.text
	.globl	ls_call03
	.type	ls_call03, @function
ls_call03:
.LFB5:
	.loc 1 54 0
	.cfi_startproc
	pushl	%ebp
.LCFI15:
	.cfi_def_cfa_offset 8
	.cfi_offset 5, -8
	movl	%esp, %ebp
.LCFI16:
	.cfi_def_cfa_register 5
	subl	$24, %esp
	.loc 1 55 0
	movl	$0, -12(%ebp)
.LVL37:
	.loc 1 56 0
	call	ls_call3
.LVL38:
	movl	%eax, -12(%ebp)
.LVL39:
	.loc 1 57 0
	subl	$4, %esp
	pushl	-12(%ebp)
	pushl	$.LC5
	pushl	$1
	call	printf
.LVL40:
	addl	$16, %esp
	.loc 1 58 0
	nop
	leave
.LCFI17:
	.cfi_restore 5
	.cfi_def_cfa 4, 4
.LVL41:
	ret
	.cfi_endproc
.LFE5:
	.size	ls_call03, .-ls_call03
	.section	.rodata
.LC6:
	.string	" Calling ls cal1 04 %d\n"
	.text
	.globl	ls_call04
	.type	ls_call04, @function
ls_call04:
.LFB6:
	.loc 1 61 0
	.cfi_startproc
	pushl	%ebp
.LCFI18:
	.cfi_def_cfa_offset 8
	.cfi_offset 5, -8
	movl	%esp, %ebp
.LCFI19:
	.cfi_def_cfa_register 5
	subl	$24, %esp
	.loc 1 62 0
	movl	$0, -12(%ebp)
.LVL42:
	.loc 1 63 0
	call	ls_call4
.LVL43:
	movl	%eax, -12(%ebp)
.LVL44:
	.loc 1 64 0
	subl	$4, %esp
	pushl	-12(%ebp)
	pushl	$.LC6
	pushl	$1
	call	printf
.LVL45:
	addl	$16, %esp
	.loc 1 65 0
	nop
	leave
.LCFI20:
	.cfi_restore 5
	.cfi_def_cfa 4, 4
.LVL46:
	ret
	.cfi_endproc
.LFE6:
	.size	ls_call04, .-ls_call04
	.section	.rodata
.LC7:
	.string	" Calling ht 01 %d\n"
	.text
	.globl	call01_ht
	.type	call01_ht, @function
call01_ht:
.LFB7:
	.loc 1 68 0
	.cfi_startproc
	pushl	%ebp
.LCFI21:
	.cfi_def_cfa_offset 8
	.cfi_offset 5, -8
	movl	%esp, %ebp
.LCFI22:
	.cfi_def_cfa_register 5
	subl	$24, %esp
	.loc 1 69 0
	movl	$0, -12(%ebp)
.LVL47:
	.loc 1 70 0
	call	ht_call1
.LVL48:
	movl	%eax, -12(%ebp)
.LVL49:
	.loc 1 71 0
	subl	$4, %esp
	pushl	-12(%ebp)
	pushl	$.LC7
	pushl	$1
	call	printf
.LVL50:
	addl	$16, %esp
	.loc 1 72 0
	nop
	leave
.LCFI23:
	.cfi_restore 5
	.cfi_def_cfa 4, 4
.LVL51:
	ret
	.cfi_endproc
.LFE7:
	.size	call01_ht, .-call01_ht
	.section	.rodata
.LC8:
	.string	" Calling ht 50 5%d\n"
	.text
	.globl	call50_ht
	.type	call50_ht, @function
call50_ht:
.LFB8:
	.loc 1 74 0
	.cfi_startproc
	pushl	%ebp
.LCFI24:
	.cfi_def_cfa_offset 8
	.cfi_offset 5, -8
	movl	%esp, %ebp
.LCFI25:
	.cfi_def_cfa_register 5
	subl	$24, %esp
	.loc 1 75 0
	movl	$0, -12(%ebp)
.LVL52:
	.loc 1 76 0
	call	ht_call50
.LVL53:
	movl	%eax, -12(%ebp)
.LVL54:
	.loc 1 77 0
	subl	$4, %esp
	pushl	-12(%ebp)
	pushl	$.LC8
	pushl	$1
	call	printf
.LVL55:
	addl	$16, %esp
	.loc 1 78 0
	nop
	leave
.LCFI26:
	.cfi_restore 5
	.cfi_def_cfa 4, 4
.LVL56:
	ret
	.cfi_endproc
.LFE8:
	.size	call50_ht, .-call50_ht
	.globl	main
	.type	main, @function
main:
.LFB9:
	.loc 1 81 0
	.cfi_startproc
.LVL57:
	leal	4(%esp), %ecx
.LCFI27:
	.cfi_def_cfa 1, 0
	andl	$-16, %esp
	pushl	-4(%ecx)
	pushl	%ebp
	.cfi_escape 0x10,0x5,0x2,0x75,0
	movl	%esp, %ebp
	pushl	%ecx
.LCFI28:
	.cfi_escape 0xf,0x3,0x75,0x7c,0x6
	subl	$4, %esp
	.loc 1 82 0
	call	test_date
.LVL58:
	.loc 1 83 0
	call	test_getpid
.LVL59:
	.loc 1 84 0
	call	call01_ls
.LVL60:
	.loc 1 85 0
	call	call50_ls
.LVL61:
	.loc 1 86 0
	call	ls_linear_time
.LVL62:
	.loc 1 87 0
	call	call01_ht
.LVL63:
	.loc 1 88 0
	call	call50_ht
.LVL64:
	.loc 1 89 0
	movl	$0, %eax
	.loc 1 90 0
	addl	$4, %esp
	popl	%ecx
.LCFI29:
	.cfi_restore 1
	.cfi_def_cfa 1, 0
	popl	%ebp
	.cfi_restore 5
	leal	-4(%ecx), %esp
.LCFI30:
	.cfi_def_cfa 4, 4
	ret
	.cfi_endproc
.LFE9:
	.size	main, .-main
.Letext0:
	.file 2 "date.h"
	.file 3 "user.h"
	.section	.note.GNU-stack,"",@progbits
