	.file	"cs550_syscall.c"
	.text
.Ltext0:
	.globl	sys_date
	.type	sys_date, @function
sys_date:
.LFB20:
	.file 1 "cs550_syscall.c"
	.loc 1 19 0
	.cfi_startproc
	pushl	%ebp
.LCFI0:
	.cfi_def_cfa_offset 8
	.cfi_offset 5, -8
	movl	%esp, %ebp
.LCFI1:
	.cfi_def_cfa_register 5
	subl	$24, %esp
	.loc 1 22 0
	subl	$4, %esp
	pushl	$24
	leal	-12(%ebp), %eax
	pushl	%eax
	pushl	$0
	call	argptr
.LVL0:
	addl	$16, %esp
	testl	%eax, %eax
	jns	.L2
	.loc 1 23 0
	movl	$-1, %eax
	jmp	.L6
.L2:
	.loc 1 24 0
	movl	-12(%ebp), %eax
	testl	%eax, %eax
	je	.L4
	.loc 1 25 0
	movl	-12(%ebp), %eax
	subl	$12, %esp
	pushl	%eax
	call	cmostime
.LVL1:
	addl	$16, %esp
	.loc 1 29 0
	movl	$1, %eax
	jmp	.L6
.L4:
	.loc 1 27 0
	movl	$-1, %eax
.L6:
	.loc 1 30 0 discriminator 1
	leave
.LCFI2:
	.cfi_restore 5
	.cfi_def_cfa 4, 4
	ret
	.cfi_endproc
.LFE20:
	.size	sys_date, .-sys_date
	.globl	func_ls_call1
	.type	func_ls_call1, @function
func_ls_call1:
.LFB21:
	.loc 1 45 0
	.cfi_startproc
	pushl	%ebp
.LCFI3:
	.cfi_def_cfa_offset 8
	.cfi_offset 5, -8
	movl	%esp, %ebp
.LCFI4:
	.cfi_def_cfa_register 5
	.loc 1 46 0
	movl	$1, %eax
	.loc 1 47 0
	popl	%ebp
.LCFI5:
	.cfi_restore 5
	.cfi_def_cfa 4, 4
	ret
	.cfi_endproc
.LFE21:
	.size	func_ls_call1, .-func_ls_call1
	.globl	func_ls_call2
	.type	func_ls_call2, @function
func_ls_call2:
.LFB22:
	.loc 1 49 0
	.cfi_startproc
	pushl	%ebp
.LCFI6:
	.cfi_def_cfa_offset 8
	.cfi_offset 5, -8
	movl	%esp, %ebp
.LCFI7:
	.cfi_def_cfa_register 5
	.loc 1 50 0
	movl	$2, %eax
	.loc 1 51 0
	popl	%ebp
.LCFI8:
	.cfi_restore 5
	.cfi_def_cfa 4, 4
	ret
	.cfi_endproc
.LFE22:
	.size	func_ls_call2, .-func_ls_call2
	.globl	func_ls_call3
	.type	func_ls_call3, @function
func_ls_call3:
.LFB23:
	.loc 1 53 0
	.cfi_startproc
	pushl	%ebp
.LCFI9:
	.cfi_def_cfa_offset 8
	.cfi_offset 5, -8
	movl	%esp, %ebp
.LCFI10:
	.cfi_def_cfa_register 5
	.loc 1 54 0
	movl	$3, %eax
	.loc 1 55 0
	popl	%ebp
.LCFI11:
	.cfi_restore 5
	.cfi_def_cfa 4, 4
	ret
	.cfi_endproc
.LFE23:
	.size	func_ls_call3, .-func_ls_call3
	.globl	func_ls_call4
	.type	func_ls_call4, @function
func_ls_call4:
.LFB24:
	.loc 1 57 0
	.cfi_startproc
	pushl	%ebp
.LCFI12:
	.cfi_def_cfa_offset 8
	.cfi_offset 5, -8
	movl	%esp, %ebp
.LCFI13:
	.cfi_def_cfa_register 5
	.loc 1 58 0
	movl	$4, %eax
	.loc 1 59 0
	popl	%ebp
.LCFI14:
	.cfi_restore 5
	.cfi_def_cfa 4, 4
	ret
	.cfi_endproc
.LFE24:
	.size	func_ls_call4, .-func_ls_call4
	.globl	func_ls_call5
	.type	func_ls_call5, @function
func_ls_call5:
.LFB25:
	.loc 1 61 0
	.cfi_startproc
	pushl	%ebp
.LCFI15:
	.cfi_def_cfa_offset 8
	.cfi_offset 5, -8
	movl	%esp, %ebp
.LCFI16:
	.cfi_def_cfa_register 5
	.loc 1 62 0
	movl	$5, %eax
	.loc 1 63 0
	popl	%ebp
.LCFI17:
	.cfi_restore 5
	.cfi_def_cfa 4, 4
	ret
	.cfi_endproc
.LFE25:
	.size	func_ls_call5, .-func_ls_call5
	.globl	func_ls_call6
	.type	func_ls_call6, @function
func_ls_call6:
.LFB26:
	.loc 1 65 0
	.cfi_startproc
	pushl	%ebp
.LCFI18:
	.cfi_def_cfa_offset 8
	.cfi_offset 5, -8
	movl	%esp, %ebp
.LCFI19:
	.cfi_def_cfa_register 5
	.loc 1 66 0
	movl	$6, %eax
	.loc 1 67 0
	popl	%ebp
.LCFI20:
	.cfi_restore 5
	.cfi_def_cfa 4, 4
	ret
	.cfi_endproc
.LFE26:
	.size	func_ls_call6, .-func_ls_call6
	.globl	func_ls_call7
	.type	func_ls_call7, @function
func_ls_call7:
.LFB27:
	.loc 1 69 0
	.cfi_startproc
	pushl	%ebp
.LCFI21:
	.cfi_def_cfa_offset 8
	.cfi_offset 5, -8
	movl	%esp, %ebp
.LCFI22:
	.cfi_def_cfa_register 5
	.loc 1 70 0
	movl	$7, %eax
	.loc 1 71 0
	popl	%ebp
.LCFI23:
	.cfi_restore 5
	.cfi_def_cfa 4, 4
	ret
	.cfi_endproc
.LFE27:
	.size	func_ls_call7, .-func_ls_call7
	.globl	func_ls_call8
	.type	func_ls_call8, @function
func_ls_call8:
.LFB28:
	.loc 1 73 0
	.cfi_startproc
	pushl	%ebp
.LCFI24:
	.cfi_def_cfa_offset 8
	.cfi_offset 5, -8
	movl	%esp, %ebp
.LCFI25:
	.cfi_def_cfa_register 5
	.loc 1 74 0
	movl	$8, %eax
	.loc 1 75 0
	popl	%ebp
.LCFI26:
	.cfi_restore 5
	.cfi_def_cfa 4, 4
	ret
	.cfi_endproc
.LFE28:
	.size	func_ls_call8, .-func_ls_call8
	.globl	func_ls_call9
	.type	func_ls_call9, @function
func_ls_call9:
.LFB29:
	.loc 1 77 0
	.cfi_startproc
	pushl	%ebp
.LCFI27:
	.cfi_def_cfa_offset 8
	.cfi_offset 5, -8
	movl	%esp, %ebp
.LCFI28:
	.cfi_def_cfa_register 5
	.loc 1 78 0
	movl	$9, %eax
	.loc 1 79 0
	popl	%ebp
.LCFI29:
	.cfi_restore 5
	.cfi_def_cfa 4, 4
	ret
	.cfi_endproc
.LFE29:
	.size	func_ls_call9, .-func_ls_call9
	.globl	func_ls_call10
	.type	func_ls_call10, @function
func_ls_call10:
.LFB30:
	.loc 1 81 0
	.cfi_startproc
	pushl	%ebp
.LCFI30:
	.cfi_def_cfa_offset 8
	.cfi_offset 5, -8
	movl	%esp, %ebp
.LCFI31:
	.cfi_def_cfa_register 5
	.loc 1 82 0
	movl	$10, %eax
	.loc 1 83 0
	popl	%ebp
.LCFI32:
	.cfi_restore 5
	.cfi_def_cfa 4, 4
	ret
	.cfi_endproc
.LFE30:
	.size	func_ls_call10, .-func_ls_call10
	.globl	func_ls_call11
	.type	func_ls_call11, @function
func_ls_call11:
.LFB31:
	.loc 1 85 0
	.cfi_startproc
	pushl	%ebp
.LCFI33:
	.cfi_def_cfa_offset 8
	.cfi_offset 5, -8
	movl	%esp, %ebp
.LCFI34:
	.cfi_def_cfa_register 5
	.loc 1 86 0
	movl	$11, %eax
	.loc 1 87 0
	popl	%ebp
.LCFI35:
	.cfi_restore 5
	.cfi_def_cfa 4, 4
	ret
	.cfi_endproc
.LFE31:
	.size	func_ls_call11, .-func_ls_call11
	.globl	func_ls_call12
	.type	func_ls_call12, @function
func_ls_call12:
.LFB32:
	.loc 1 89 0
	.cfi_startproc
	pushl	%ebp
.LCFI36:
	.cfi_def_cfa_offset 8
	.cfi_offset 5, -8
	movl	%esp, %ebp
.LCFI37:
	.cfi_def_cfa_register 5
	.loc 1 90 0
	movl	$12, %eax
	.loc 1 91 0
	popl	%ebp
.LCFI38:
	.cfi_restore 5
	.cfi_def_cfa 4, 4
	ret
	.cfi_endproc
.LFE32:
	.size	func_ls_call12, .-func_ls_call12
	.globl	func_ls_call13
	.type	func_ls_call13, @function
func_ls_call13:
.LFB33:
	.loc 1 93 0
	.cfi_startproc
	pushl	%ebp
.LCFI39:
	.cfi_def_cfa_offset 8
	.cfi_offset 5, -8
	movl	%esp, %ebp
.LCFI40:
	.cfi_def_cfa_register 5
	.loc 1 94 0
	movl	$13, %eax
	.loc 1 95 0
	popl	%ebp
.LCFI41:
	.cfi_restore 5
	.cfi_def_cfa 4, 4
	ret
	.cfi_endproc
.LFE33:
	.size	func_ls_call13, .-func_ls_call13
	.globl	func_ls_call14
	.type	func_ls_call14, @function
func_ls_call14:
.LFB34:
	.loc 1 97 0
	.cfi_startproc
	pushl	%ebp
.LCFI42:
	.cfi_def_cfa_offset 8
	.cfi_offset 5, -8
	movl	%esp, %ebp
.LCFI43:
	.cfi_def_cfa_register 5
	.loc 1 98 0
	movl	$14, %eax
	.loc 1 99 0
	popl	%ebp
.LCFI44:
	.cfi_restore 5
	.cfi_def_cfa 4, 4
	ret
	.cfi_endproc
.LFE34:
	.size	func_ls_call14, .-func_ls_call14
	.globl	func_ls_call15
	.type	func_ls_call15, @function
func_ls_call15:
.LFB35:
	.loc 1 101 0
	.cfi_startproc
	pushl	%ebp
.LCFI45:
	.cfi_def_cfa_offset 8
	.cfi_offset 5, -8
	movl	%esp, %ebp
.LCFI46:
	.cfi_def_cfa_register 5
	.loc 1 102 0
	movl	$15, %eax
	.loc 1 103 0
	popl	%ebp
.LCFI47:
	.cfi_restore 5
	.cfi_def_cfa 4, 4
	ret
	.cfi_endproc
.LFE35:
	.size	func_ls_call15, .-func_ls_call15
	.globl	func_ls_call16
	.type	func_ls_call16, @function
func_ls_call16:
.LFB36:
	.loc 1 105 0
	.cfi_startproc
	pushl	%ebp
.LCFI48:
	.cfi_def_cfa_offset 8
	.cfi_offset 5, -8
	movl	%esp, %ebp
.LCFI49:
	.cfi_def_cfa_register 5
	.loc 1 106 0
	movl	$16, %eax
	.loc 1 107 0
	popl	%ebp
.LCFI50:
	.cfi_restore 5
	.cfi_def_cfa 4, 4
	ret
	.cfi_endproc
.LFE36:
	.size	func_ls_call16, .-func_ls_call16
	.globl	func_ls_call17
	.type	func_ls_call17, @function
func_ls_call17:
.LFB37:
	.loc 1 109 0
	.cfi_startproc
	pushl	%ebp
.LCFI51:
	.cfi_def_cfa_offset 8
	.cfi_offset 5, -8
	movl	%esp, %ebp
.LCFI52:
	.cfi_def_cfa_register 5
	.loc 1 110 0
	movl	$17, %eax
	.loc 1 111 0
	popl	%ebp
.LCFI53:
	.cfi_restore 5
	.cfi_def_cfa 4, 4
	ret
	.cfi_endproc
.LFE37:
	.size	func_ls_call17, .-func_ls_call17
	.globl	func_ls_call18
	.type	func_ls_call18, @function
func_ls_call18:
.LFB38:
	.loc 1 113 0
	.cfi_startproc
	pushl	%ebp
.LCFI54:
	.cfi_def_cfa_offset 8
	.cfi_offset 5, -8
	movl	%esp, %ebp
.LCFI55:
	.cfi_def_cfa_register 5
	.loc 1 114 0
	movl	$18, %eax
	.loc 1 115 0
	popl	%ebp
.LCFI56:
	.cfi_restore 5
	.cfi_def_cfa 4, 4
	ret
	.cfi_endproc
.LFE38:
	.size	func_ls_call18, .-func_ls_call18
	.globl	func_ls_call19
	.type	func_ls_call19, @function
func_ls_call19:
.LFB39:
	.loc 1 117 0
	.cfi_startproc
	pushl	%ebp
.LCFI57:
	.cfi_def_cfa_offset 8
	.cfi_offset 5, -8
	movl	%esp, %ebp
.LCFI58:
	.cfi_def_cfa_register 5
	.loc 1 118 0
	movl	$19, %eax
	.loc 1 119 0
	popl	%ebp
.LCFI59:
	.cfi_restore 5
	.cfi_def_cfa 4, 4
	ret
	.cfi_endproc
.LFE39:
	.size	func_ls_call19, .-func_ls_call19
	.globl	func_ls_call20
	.type	func_ls_call20, @function
func_ls_call20:
.LFB40:
	.loc 1 121 0
	.cfi_startproc
	pushl	%ebp
.LCFI60:
	.cfi_def_cfa_offset 8
	.cfi_offset 5, -8
	movl	%esp, %ebp
.LCFI61:
	.cfi_def_cfa_register 5
	.loc 1 122 0
	movl	$20, %eax
	.loc 1 123 0
	popl	%ebp
.LCFI62:
	.cfi_restore 5
	.cfi_def_cfa 4, 4
	ret
	.cfi_endproc
.LFE40:
	.size	func_ls_call20, .-func_ls_call20
	.globl	func_ls_call21
	.type	func_ls_call21, @function
func_ls_call21:
.LFB41:
	.loc 1 125 0
	.cfi_startproc
	pushl	%ebp
.LCFI63:
	.cfi_def_cfa_offset 8
	.cfi_offset 5, -8
	movl	%esp, %ebp
.LCFI64:
	.cfi_def_cfa_register 5
	.loc 1 126 0
	movl	$21, %eax
	.loc 1 127 0
	popl	%ebp
.LCFI65:
	.cfi_restore 5
	.cfi_def_cfa 4, 4
	ret
	.cfi_endproc
.LFE41:
	.size	func_ls_call21, .-func_ls_call21
	.globl	func_ls_call22
	.type	func_ls_call22, @function
func_ls_call22:
.LFB42:
	.loc 1 129 0
	.cfi_startproc
	pushl	%ebp
.LCFI66:
	.cfi_def_cfa_offset 8
	.cfi_offset 5, -8
	movl	%esp, %ebp
.LCFI67:
	.cfi_def_cfa_register 5
	.loc 1 130 0
	movl	$22, %eax
	.loc 1 131 0
	popl	%ebp
.LCFI68:
	.cfi_restore 5
	.cfi_def_cfa 4, 4
	ret
	.cfi_endproc
.LFE42:
	.size	func_ls_call22, .-func_ls_call22
	.globl	func_ls_call23
	.type	func_ls_call23, @function
func_ls_call23:
.LFB43:
	.loc 1 133 0
	.cfi_startproc
	pushl	%ebp
.LCFI69:
	.cfi_def_cfa_offset 8
	.cfi_offset 5, -8
	movl	%esp, %ebp
.LCFI70:
	.cfi_def_cfa_register 5
	.loc 1 134 0
	movl	$23, %eax
	.loc 1 135 0
	popl	%ebp
.LCFI71:
	.cfi_restore 5
	.cfi_def_cfa 4, 4
	ret
	.cfi_endproc
.LFE43:
	.size	func_ls_call23, .-func_ls_call23
	.globl	func_ls_call24
	.type	func_ls_call24, @function
func_ls_call24:
.LFB44:
	.loc 1 137 0
	.cfi_startproc
	pushl	%ebp
.LCFI72:
	.cfi_def_cfa_offset 8
	.cfi_offset 5, -8
	movl	%esp, %ebp
.LCFI73:
	.cfi_def_cfa_register 5
	.loc 1 138 0
	movl	$24, %eax
	.loc 1 139 0
	popl	%ebp
.LCFI74:
	.cfi_restore 5
	.cfi_def_cfa 4, 4
	ret
	.cfi_endproc
.LFE44:
	.size	func_ls_call24, .-func_ls_call24
	.globl	func_ls_call25
	.type	func_ls_call25, @function
func_ls_call25:
.LFB45:
	.loc 1 141 0
	.cfi_startproc
	pushl	%ebp
.LCFI75:
	.cfi_def_cfa_offset 8
	.cfi_offset 5, -8
	movl	%esp, %ebp
.LCFI76:
	.cfi_def_cfa_register 5
	.loc 1 142 0
	movl	$25, %eax
	.loc 1 143 0
	popl	%ebp
.LCFI77:
	.cfi_restore 5
	.cfi_def_cfa 4, 4
	ret
	.cfi_endproc
.LFE45:
	.size	func_ls_call25, .-func_ls_call25
	.globl	func_ls_call26
	.type	func_ls_call26, @function
func_ls_call26:
.LFB46:
	.loc 1 145 0
	.cfi_startproc
	pushl	%ebp
.LCFI78:
	.cfi_def_cfa_offset 8
	.cfi_offset 5, -8
	movl	%esp, %ebp
.LCFI79:
	.cfi_def_cfa_register 5
	.loc 1 146 0
	movl	$26, %eax
	.loc 1 147 0
	popl	%ebp
.LCFI80:
	.cfi_restore 5
	.cfi_def_cfa 4, 4
	ret
	.cfi_endproc
.LFE46:
	.size	func_ls_call26, .-func_ls_call26
	.globl	func_ls_call27
	.type	func_ls_call27, @function
func_ls_call27:
.LFB47:
	.loc 1 149 0
	.cfi_startproc
	pushl	%ebp
.LCFI81:
	.cfi_def_cfa_offset 8
	.cfi_offset 5, -8
	movl	%esp, %ebp
.LCFI82:
	.cfi_def_cfa_register 5
	.loc 1 150 0
	movl	$27, %eax
	.loc 1 151 0
	popl	%ebp
.LCFI83:
	.cfi_restore 5
	.cfi_def_cfa 4, 4
	ret
	.cfi_endproc
.LFE47:
	.size	func_ls_call27, .-func_ls_call27
	.globl	func_ls_call28
	.type	func_ls_call28, @function
func_ls_call28:
.LFB48:
	.loc 1 153 0
	.cfi_startproc
	pushl	%ebp
.LCFI84:
	.cfi_def_cfa_offset 8
	.cfi_offset 5, -8
	movl	%esp, %ebp
.LCFI85:
	.cfi_def_cfa_register 5
	.loc 1 154 0
	movl	$28, %eax
	.loc 1 155 0
	popl	%ebp
.LCFI86:
	.cfi_restore 5
	.cfi_def_cfa 4, 4
	ret
	.cfi_endproc
.LFE48:
	.size	func_ls_call28, .-func_ls_call28
	.globl	func_ls_call29
	.type	func_ls_call29, @function
func_ls_call29:
.LFB49:
	.loc 1 157 0
	.cfi_startproc
	pushl	%ebp
.LCFI87:
	.cfi_def_cfa_offset 8
	.cfi_offset 5, -8
	movl	%esp, %ebp
.LCFI88:
	.cfi_def_cfa_register 5
	.loc 1 158 0
	movl	$29, %eax
	.loc 1 159 0
	popl	%ebp
.LCFI89:
	.cfi_restore 5
	.cfi_def_cfa 4, 4
	ret
	.cfi_endproc
.LFE49:
	.size	func_ls_call29, .-func_ls_call29
	.globl	func_ls_call30
	.type	func_ls_call30, @function
func_ls_call30:
.LFB50:
	.loc 1 161 0
	.cfi_startproc
	pushl	%ebp
.LCFI90:
	.cfi_def_cfa_offset 8
	.cfi_offset 5, -8
	movl	%esp, %ebp
.LCFI91:
	.cfi_def_cfa_register 5
	.loc 1 162 0
	movl	$30, %eax
	.loc 1 163 0
	popl	%ebp
.LCFI92:
	.cfi_restore 5
	.cfi_def_cfa 4, 4
	ret
	.cfi_endproc
.LFE50:
	.size	func_ls_call30, .-func_ls_call30
	.globl	func_ls_call31
	.type	func_ls_call31, @function
func_ls_call31:
.LFB51:
	.loc 1 165 0
	.cfi_startproc
	pushl	%ebp
.LCFI93:
	.cfi_def_cfa_offset 8
	.cfi_offset 5, -8
	movl	%esp, %ebp
.LCFI94:
	.cfi_def_cfa_register 5
	.loc 1 166 0
	movl	$31, %eax
	.loc 1 167 0
	popl	%ebp
.LCFI95:
	.cfi_restore 5
	.cfi_def_cfa 4, 4
	ret
	.cfi_endproc
.LFE51:
	.size	func_ls_call31, .-func_ls_call31
	.globl	func_ls_call32
	.type	func_ls_call32, @function
func_ls_call32:
.LFB52:
	.loc 1 169 0
	.cfi_startproc
	pushl	%ebp
.LCFI96:
	.cfi_def_cfa_offset 8
	.cfi_offset 5, -8
	movl	%esp, %ebp
.LCFI97:
	.cfi_def_cfa_register 5
	.loc 1 170 0
	movl	$32, %eax
	.loc 1 171 0
	popl	%ebp
.LCFI98:
	.cfi_restore 5
	.cfi_def_cfa 4, 4
	ret
	.cfi_endproc
.LFE52:
	.size	func_ls_call32, .-func_ls_call32
	.globl	func_ls_call33
	.type	func_ls_call33, @function
func_ls_call33:
.LFB53:
	.loc 1 173 0
	.cfi_startproc
	pushl	%ebp
.LCFI99:
	.cfi_def_cfa_offset 8
	.cfi_offset 5, -8
	movl	%esp, %ebp
.LCFI100:
	.cfi_def_cfa_register 5
	.loc 1 174 0
	movl	$33, %eax
	.loc 1 175 0
	popl	%ebp
.LCFI101:
	.cfi_restore 5
	.cfi_def_cfa 4, 4
	ret
	.cfi_endproc
.LFE53:
	.size	func_ls_call33, .-func_ls_call33
	.globl	func_ls_call34
	.type	func_ls_call34, @function
func_ls_call34:
.LFB54:
	.loc 1 177 0
	.cfi_startproc
	pushl	%ebp
.LCFI102:
	.cfi_def_cfa_offset 8
	.cfi_offset 5, -8
	movl	%esp, %ebp
.LCFI103:
	.cfi_def_cfa_register 5
	.loc 1 178 0
	movl	$34, %eax
	.loc 1 179 0
	popl	%ebp
.LCFI104:
	.cfi_restore 5
	.cfi_def_cfa 4, 4
	ret
	.cfi_endproc
.LFE54:
	.size	func_ls_call34, .-func_ls_call34
	.globl	func_ls_call35
	.type	func_ls_call35, @function
func_ls_call35:
.LFB55:
	.loc 1 181 0
	.cfi_startproc
	pushl	%ebp
.LCFI105:
	.cfi_def_cfa_offset 8
	.cfi_offset 5, -8
	movl	%esp, %ebp
.LCFI106:
	.cfi_def_cfa_register 5
	.loc 1 182 0
	movl	$35, %eax
	.loc 1 183 0
	popl	%ebp
.LCFI107:
	.cfi_restore 5
	.cfi_def_cfa 4, 4
	ret
	.cfi_endproc
.LFE55:
	.size	func_ls_call35, .-func_ls_call35
	.globl	func_ls_call36
	.type	func_ls_call36, @function
func_ls_call36:
.LFB56:
	.loc 1 185 0
	.cfi_startproc
	pushl	%ebp
.LCFI108:
	.cfi_def_cfa_offset 8
	.cfi_offset 5, -8
	movl	%esp, %ebp
.LCFI109:
	.cfi_def_cfa_register 5
	.loc 1 186 0
	movl	$36, %eax
	.loc 1 187 0
	popl	%ebp
.LCFI110:
	.cfi_restore 5
	.cfi_def_cfa 4, 4
	ret
	.cfi_endproc
.LFE56:
	.size	func_ls_call36, .-func_ls_call36
	.globl	func_ls_call37
	.type	func_ls_call37, @function
func_ls_call37:
.LFB57:
	.loc 1 189 0
	.cfi_startproc
	pushl	%ebp
.LCFI111:
	.cfi_def_cfa_offset 8
	.cfi_offset 5, -8
	movl	%esp, %ebp
.LCFI112:
	.cfi_def_cfa_register 5
	.loc 1 190 0
	movl	$37, %eax
	.loc 1 191 0
	popl	%ebp
.LCFI113:
	.cfi_restore 5
	.cfi_def_cfa 4, 4
	ret
	.cfi_endproc
.LFE57:
	.size	func_ls_call37, .-func_ls_call37
	.globl	func_ls_call38
	.type	func_ls_call38, @function
func_ls_call38:
.LFB58:
	.loc 1 193 0
	.cfi_startproc
	pushl	%ebp
.LCFI114:
	.cfi_def_cfa_offset 8
	.cfi_offset 5, -8
	movl	%esp, %ebp
.LCFI115:
	.cfi_def_cfa_register 5
	.loc 1 194 0
	movl	$38, %eax
	.loc 1 195 0
	popl	%ebp
.LCFI116:
	.cfi_restore 5
	.cfi_def_cfa 4, 4
	ret
	.cfi_endproc
.LFE58:
	.size	func_ls_call38, .-func_ls_call38
	.globl	func_ls_call39
	.type	func_ls_call39, @function
func_ls_call39:
.LFB59:
	.loc 1 197 0
	.cfi_startproc
	pushl	%ebp
.LCFI117:
	.cfi_def_cfa_offset 8
	.cfi_offset 5, -8
	movl	%esp, %ebp
.LCFI118:
	.cfi_def_cfa_register 5
	.loc 1 198 0
	movl	$39, %eax
	.loc 1 199 0
	popl	%ebp
.LCFI119:
	.cfi_restore 5
	.cfi_def_cfa 4, 4
	ret
	.cfi_endproc
.LFE59:
	.size	func_ls_call39, .-func_ls_call39
	.globl	func_ls_call40
	.type	func_ls_call40, @function
func_ls_call40:
.LFB60:
	.loc 1 201 0
	.cfi_startproc
	pushl	%ebp
.LCFI120:
	.cfi_def_cfa_offset 8
	.cfi_offset 5, -8
	movl	%esp, %ebp
.LCFI121:
	.cfi_def_cfa_register 5
	.loc 1 202 0
	movl	$40, %eax
	.loc 1 203 0
	popl	%ebp
.LCFI122:
	.cfi_restore 5
	.cfi_def_cfa 4, 4
	ret
	.cfi_endproc
.LFE60:
	.size	func_ls_call40, .-func_ls_call40
	.globl	func_ls_call41
	.type	func_ls_call41, @function
func_ls_call41:
.LFB61:
	.loc 1 205 0
	.cfi_startproc
	pushl	%ebp
.LCFI123:
	.cfi_def_cfa_offset 8
	.cfi_offset 5, -8
	movl	%esp, %ebp
.LCFI124:
	.cfi_def_cfa_register 5
	.loc 1 206 0
	movl	$41, %eax
	.loc 1 207 0
	popl	%ebp
.LCFI125:
	.cfi_restore 5
	.cfi_def_cfa 4, 4
	ret
	.cfi_endproc
.LFE61:
	.size	func_ls_call41, .-func_ls_call41
	.globl	func_ls_call42
	.type	func_ls_call42, @function
func_ls_call42:
.LFB62:
	.loc 1 209 0
	.cfi_startproc
	pushl	%ebp
.LCFI126:
	.cfi_def_cfa_offset 8
	.cfi_offset 5, -8
	movl	%esp, %ebp
.LCFI127:
	.cfi_def_cfa_register 5
	.loc 1 210 0
	movl	$42, %eax
	.loc 1 211 0
	popl	%ebp
.LCFI128:
	.cfi_restore 5
	.cfi_def_cfa 4, 4
	ret
	.cfi_endproc
.LFE62:
	.size	func_ls_call42, .-func_ls_call42
	.globl	func_ls_call43
	.type	func_ls_call43, @function
func_ls_call43:
.LFB63:
	.loc 1 213 0
	.cfi_startproc
	pushl	%ebp
.LCFI129:
	.cfi_def_cfa_offset 8
	.cfi_offset 5, -8
	movl	%esp, %ebp
.LCFI130:
	.cfi_def_cfa_register 5
	.loc 1 214 0
	movl	$43, %eax
	.loc 1 215 0
	popl	%ebp
.LCFI131:
	.cfi_restore 5
	.cfi_def_cfa 4, 4
	ret
	.cfi_endproc
.LFE63:
	.size	func_ls_call43, .-func_ls_call43
	.globl	func_ls_call44
	.type	func_ls_call44, @function
func_ls_call44:
.LFB64:
	.loc 1 217 0
	.cfi_startproc
	pushl	%ebp
.LCFI132:
	.cfi_def_cfa_offset 8
	.cfi_offset 5, -8
	movl	%esp, %ebp
.LCFI133:
	.cfi_def_cfa_register 5
	.loc 1 218 0
	movl	$44, %eax
	.loc 1 219 0
	popl	%ebp
.LCFI134:
	.cfi_restore 5
	.cfi_def_cfa 4, 4
	ret
	.cfi_endproc
.LFE64:
	.size	func_ls_call44, .-func_ls_call44
	.globl	func_ls_call45
	.type	func_ls_call45, @function
func_ls_call45:
.LFB65:
	.loc 1 221 0
	.cfi_startproc
	pushl	%ebp
.LCFI135:
	.cfi_def_cfa_offset 8
	.cfi_offset 5, -8
	movl	%esp, %ebp
.LCFI136:
	.cfi_def_cfa_register 5
	.loc 1 222 0
	movl	$45, %eax
	.loc 1 223 0
	popl	%ebp
.LCFI137:
	.cfi_restore 5
	.cfi_def_cfa 4, 4
	ret
	.cfi_endproc
.LFE65:
	.size	func_ls_call45, .-func_ls_call45
	.globl	func_ls_call46
	.type	func_ls_call46, @function
func_ls_call46:
.LFB66:
	.loc 1 225 0
	.cfi_startproc
	pushl	%ebp
.LCFI138:
	.cfi_def_cfa_offset 8
	.cfi_offset 5, -8
	movl	%esp, %ebp
.LCFI139:
	.cfi_def_cfa_register 5
	.loc 1 226 0
	movl	$46, %eax
	.loc 1 227 0
	popl	%ebp
.LCFI140:
	.cfi_restore 5
	.cfi_def_cfa 4, 4
	ret
	.cfi_endproc
.LFE66:
	.size	func_ls_call46, .-func_ls_call46
	.globl	func_ls_call47
	.type	func_ls_call47, @function
func_ls_call47:
.LFB67:
	.loc 1 229 0
	.cfi_startproc
	pushl	%ebp
.LCFI141:
	.cfi_def_cfa_offset 8
	.cfi_offset 5, -8
	movl	%esp, %ebp
.LCFI142:
	.cfi_def_cfa_register 5
	.loc 1 230 0
	movl	$47, %eax
	.loc 1 231 0
	popl	%ebp
.LCFI143:
	.cfi_restore 5
	.cfi_def_cfa 4, 4
	ret
	.cfi_endproc
.LFE67:
	.size	func_ls_call47, .-func_ls_call47
	.globl	func_ls_call48
	.type	func_ls_call48, @function
func_ls_call48:
.LFB68:
	.loc 1 233 0
	.cfi_startproc
	pushl	%ebp
.LCFI144:
	.cfi_def_cfa_offset 8
	.cfi_offset 5, -8
	movl	%esp, %ebp
.LCFI145:
	.cfi_def_cfa_register 5
	.loc 1 234 0
	movl	$48, %eax
	.loc 1 235 0
	popl	%ebp
.LCFI146:
	.cfi_restore 5
	.cfi_def_cfa 4, 4
	ret
	.cfi_endproc
.LFE68:
	.size	func_ls_call48, .-func_ls_call48
	.globl	func_ls_call49
	.type	func_ls_call49, @function
func_ls_call49:
.LFB69:
	.loc 1 237 0
	.cfi_startproc
	pushl	%ebp
.LCFI147:
	.cfi_def_cfa_offset 8
	.cfi_offset 5, -8
	movl	%esp, %ebp
.LCFI148:
	.cfi_def_cfa_register 5
	.loc 1 238 0
	movl	$49, %eax
	.loc 1 239 0
	popl	%ebp
.LCFI149:
	.cfi_restore 5
	.cfi_def_cfa 4, 4
	ret
	.cfi_endproc
.LFE69:
	.size	func_ls_call49, .-func_ls_call49
	.globl	func_ls_call50
	.type	func_ls_call50, @function
func_ls_call50:
.LFB70:
	.loc 1 241 0
	.cfi_startproc
	pushl	%ebp
.LCFI150:
	.cfi_def_cfa_offset 8
	.cfi_offset 5, -8
	movl	%esp, %ebp
.LCFI151:
	.cfi_def_cfa_register 5
	.loc 1 242 0
	movl	$50, %eax
	.loc 1 243 0
	popl	%ebp
.LCFI152:
	.cfi_restore 5
	.cfi_def_cfa 4, 4
	ret
	.cfi_endproc
.LFE70:
	.size	func_ls_call50, .-func_ls_call50
	.globl	Default
	.type	Default, @function
Default:
.LFB71:
	.loc 1 246 0
	.cfi_startproc
	pushl	%ebp
.LCFI153:
	.cfi_def_cfa_offset 8
	.cfi_offset 5, -8
	movl	%esp, %ebp
.LCFI154:
	.cfi_def_cfa_register 5
	.loc 1 247 0
	movl	$-1, %eax
	.loc 1 248 0
	popl	%ebp
.LCFI155:
	.cfi_restore 5
	.cfi_def_cfa 4, 4
	ret
	.cfi_endproc
.LFE71:
	.size	Default, .-Default
	.section	.rodata
.LC0:
	.string	"ls_call1"
.LC1:
	.string	"ls_call2"
.LC2:
	.string	"ls_call3"
.LC3:
	.string	"ls_call4"
.LC4:
	.string	"ls_call5"
.LC5:
	.string	"ls_call6"
.LC6:
	.string	"ls_call7"
.LC7:
	.string	"ls_call8"
.LC8:
	.string	"ls_call9"
.LC9:
	.string	"ls_call10"
.LC10:
	.string	"ls_call11"
.LC11:
	.string	"ls_call12"
.LC12:
	.string	"ls_call13"
.LC13:
	.string	"ls_call14"
.LC14:
	.string	"ls_call15"
.LC15:
	.string	"ls_call16"
.LC16:
	.string	"ls_call17"
.LC17:
	.string	"ls_call18"
.LC18:
	.string	"ls_call19"
.LC19:
	.string	"ls_call20"
.LC20:
	.string	"ls_call21"
.LC21:
	.string	"ls_call22"
.LC22:
	.string	"ls_call23"
.LC23:
	.string	"ls_call24"
.LC24:
	.string	"ls_call25"
.LC25:
	.string	"ls_call26"
.LC26:
	.string	"ls_call27"
.LC27:
	.string	"ls_call28"
.LC28:
	.string	"ls_call29"
.LC29:
	.string	"ls_call30"
.LC30:
	.string	"ls_call31"
.LC31:
	.string	"ls_call32"
.LC32:
	.string	"ls_call33"
.LC33:
	.string	"ls_call34"
.LC34:
	.string	"ls_call35"
.LC35:
	.string	"ls_call36"
.LC36:
	.string	"ls_call37"
.LC37:
	.string	"ls_call38"
.LC38:
	.string	"ls_call39"
.LC39:
	.string	"ls_call40"
.LC40:
	.string	"ls_call41"
.LC41:
	.string	"ls_call42"
.LC42:
	.string	"ls_call43"
.LC43:
	.string	"ls_call44"
.LC44:
	.string	"ls_call45"
.LC45:
	.string	"ls_call46"
.LC46:
	.string	"ls_call47"
.LC47:
	.string	"ls_call48"
.LC48:
	.string	"ls_call49"
.LC49:
	.string	"ls_call50"
	.data
	.align 32
	.type	ls_syscallss, @object
	.size	ls_syscallss, 400
ls_syscallss:
	.long	.LC0
	.long	func_ls_call1
	.long	.LC1
	.long	func_ls_call2
	.long	.LC2
	.long	func_ls_call3
	.long	.LC3
	.long	func_ls_call4
	.long	.LC4
	.long	func_ls_call5
	.long	.LC5
	.long	func_ls_call6
	.long	.LC6
	.long	func_ls_call7
	.long	.LC7
	.long	func_ls_call8
	.long	.LC8
	.long	func_ls_call9
	.long	.LC9
	.long	func_ls_call10
	.long	.LC10
	.long	func_ls_call11
	.long	.LC11
	.long	func_ls_call12
	.long	.LC12
	.long	func_ls_call13
	.long	.LC13
	.long	func_ls_call14
	.long	.LC14
	.long	func_ls_call15
	.long	.LC15
	.long	func_ls_call16
	.long	.LC16
	.long	func_ls_call17
	.long	.LC17
	.long	func_ls_call18
	.long	.LC18
	.long	func_ls_call19
	.long	.LC19
	.long	func_ls_call20
	.long	.LC20
	.long	func_ls_call21
	.long	.LC21
	.long	func_ls_call22
	.long	.LC22
	.long	func_ls_call23
	.long	.LC23
	.long	func_ls_call24
	.long	.LC24
	.long	func_ls_call25
	.long	.LC25
	.long	func_ls_call26
	.long	.LC26
	.long	func_ls_call27
	.long	.LC27
	.long	func_ls_call28
	.long	.LC28
	.long	func_ls_call29
	.long	.LC29
	.long	func_ls_call30
	.long	.LC30
	.long	func_ls_call31
	.long	.LC31
	.long	func_ls_call32
	.long	.LC32
	.long	func_ls_call33
	.long	.LC33
	.long	func_ls_call34
	.long	.LC34
	.long	func_ls_call35
	.long	.LC35
	.long	func_ls_call36
	.long	.LC36
	.long	func_ls_call37
	.long	.LC37
	.long	func_ls_call38
	.long	.LC38
	.long	func_ls_call39
	.long	.LC39
	.long	func_ls_call40
	.long	.LC40
	.long	func_ls_call41
	.long	.LC41
	.long	func_ls_call42
	.long	.LC42
	.long	func_ls_call43
	.long	.LC43
	.long	func_ls_call44
	.long	.LC44
	.long	func_ls_call45
	.long	.LC45
	.long	func_ls_call46
	.long	.LC46
	.long	func_ls_call47
	.long	.LC47
	.long	func_ls_call48
	.long	.LC48
	.long	func_ls_call49
	.long	.LC49
	.long	func_ls_call50
	.text
	.globl	strcmp
	.type	strcmp, @function
strcmp:
.LFB72:
	.loc 1 306 0
	.cfi_startproc
.LVL2:
	pushl	%ebp
.LCFI156:
	.cfi_def_cfa_offset 8
	.cfi_offset 5, -8
	movl	%esp, %ebp
.LCFI157:
	.cfi_def_cfa_register 5
	.loc 1 307 0
	jmp	.L110
.L112:
	.loc 1 308 0
	addl	$1, 8(%ebp)
.LVL3:
	addl	$1, 12(%ebp)
.LVL4:
.L110:
	.loc 1 307 0
	movl	8(%ebp), %eax
	movzbl	(%eax), %eax
	testb	%al, %al
	je	.L111
	.loc 1 307 0 is_stmt 0 discriminator 1
	movl	8(%ebp), %eax
	movzbl	(%eax), %edx
	movl	12(%ebp), %eax
	movzbl	(%eax), %eax
	cmpb	%al, %dl
	je	.L112
.L111:
	.loc 1 309 0 is_stmt 1
	movl	8(%ebp), %eax
	movzbl	(%eax), %eax
	movzbl	%al, %edx
	movl	12(%ebp), %eax
	movzbl	(%eax), %eax
	movzbl	%al, %eax
	subl	%eax, %edx
	movl	%edx, %eax
	.loc 1 310 0
	popl	%ebp
.LCFI158:
	.cfi_restore 5
	.cfi_def_cfa 4, 4
	ret
	.cfi_endproc
.LFE72:
	.size	strcmp, .-strcmp
	.globl	ls_call
	.type	ls_call, @function
ls_call:
.LFB73:
	.loc 1 312 0
	.cfi_startproc
.LVL5:
	pushl	%ebp
.LCFI159:
	.cfi_def_cfa_offset 8
	.cfi_offset 5, -8
	movl	%esp, %ebp
.LCFI160:
	.cfi_def_cfa_register 5
	subl	$16, %esp
	.loc 1 313 0
	movl	$0, -4(%ebp)
.LVL6:
	.loc 1 314 0
	movl	$0, -4(%ebp)
	jmp	.L115
.L118:
	.loc 1 315 0
	movl	-4(%ebp), %eax
	movl	ls_syscallss(,%eax,8), %eax
	pushl	%eax
	pushl	8(%ebp)
	call	strcmp
.LVL7:
	addl	$8, %esp
	testl	%eax, %eax
	jne	.L116
	.loc 1 316 0
	movl	-4(%ebp), %eax
	movl	ls_syscallss+4(,%eax,8), %eax
	jmp	.L117
.L116:
	.loc 1 314 0 discriminator 2
	addl	$1, -4(%ebp)
.L115:
	.loc 1 314 0 is_stmt 0 discriminator 1
	cmpl	$99, -4(%ebp)
	jle	.L118
	.loc 1 319 0 is_stmt 1
	movl	$Default, %eax
.L117:
	.loc 1 320 0
	leave
.LCFI161:
	.cfi_restore 5
	.cfi_def_cfa 4, 4
	ret
	.cfi_endproc
.LFE73:
	.size	ls_call, .-ls_call
	.section	.rodata
.LC50:
	.string	"Setting \n"
.LC51:
	.string	"Setting failed \n"
	.text
	.globl	ls_insert
	.type	ls_insert, @function
ls_insert:
.LFB74:
	.loc 1 323 0
	.cfi_startproc
.LVL8:
	pushl	%ebp
.LCFI162:
	.cfi_def_cfa_offset 8
	.cfi_offset 5, -8
	movl	%esp, %ebp
.LCFI163:
	.cfi_def_cfa_register 5
	subl	$24, %esp
	.loc 1 324 0
	movl	$0, -12(%ebp)
.LVL9:
	.loc 1 325 0
	movl	$0, -12(%ebp)
	jmp	.L120
.L123:
	.loc 1 326 0
	movl	-12(%ebp), %eax
	movl	ls_syscallss(,%eax,8), %eax
	testl	%eax, %eax
	jne	.L121
	.loc 1 327 0
	subl	$12, %esp
	pushl	$.LC50
	call	cprintf
.LVL10:
	addl	$16, %esp
	.loc 1 328 0
	movl	-12(%ebp), %eax
	movl	8(%ebp), %edx
	movl	%edx, ls_syscallss(,%eax,8)
	.loc 1 329 0
	movl	-12(%ebp), %eax
	movl	12(%ebp), %edx
	movl	%edx, ls_syscallss+4(,%eax,8)
	.loc 1 330 0
	jmp	.L122
.L121:
	.loc 1 332 0 discriminator 2
	subl	$12, %esp
	pushl	$.LC51
	call	cprintf
.LVL11:
	addl	$16, %esp
	.loc 1 325 0 discriminator 2
	addl	$1, -12(%ebp)
.L120:
	.loc 1 325 0 is_stmt 0 discriminator 1
	cmpl	$99, -12(%ebp)
	jle	.L123
.L122:
	.loc 1 335 0 is_stmt 1
	nop
	leave
.LCFI164:
	.cfi_restore 5
	.cfi_def_cfa 4, 4
	ret
	.cfi_endproc
.LFE74:
	.size	ls_insert, .-ls_insert
	.section	.rodata
.LC52:
	.string	"Able to Call? \n"
	.text
	.globl	sys_ls_init
	.type	sys_ls_init, @function
sys_ls_init:
.LFB75:
	.loc 1 338 0
	.cfi_startproc
	pushl	%ebp
.LCFI165:
	.cfi_def_cfa_offset 8
	.cfi_offset 5, -8
	movl	%esp, %ebp
.LCFI166:
	.cfi_def_cfa_register 5
	subl	$8, %esp
	.loc 1 339 0
	subl	$12, %esp
	pushl	$.LC52
	call	cprintf
.LVL12:
	addl	$16, %esp
	.loc 1 340 0
	subl	$8, %esp
	pushl	$func_ls_call1
	pushl	$.LC0
	call	ls_insert
.LVL13:
	addl	$16, %esp
	.loc 1 341 0
	subl	$8, %esp
	pushl	$func_ls_call2
	pushl	$.LC1
	call	ls_insert
.LVL14:
	addl	$16, %esp
	.loc 1 342 0
	subl	$8, %esp
	pushl	$func_ls_call3
	pushl	$.LC2
	call	ls_insert
.LVL15:
	addl	$16, %esp
	.loc 1 343 0
	subl	$8, %esp
	pushl	$func_ls_call4
	pushl	$.LC3
	call	ls_insert
.LVL16:
	addl	$16, %esp
	.loc 1 344 0
	subl	$8, %esp
	pushl	$func_ls_call5
	pushl	$.LC4
	call	ls_insert
.LVL17:
	addl	$16, %esp
	.loc 1 345 0
	subl	$8, %esp
	pushl	$func_ls_call6
	pushl	$.LC5
	call	ls_insert
.LVL18:
	addl	$16, %esp
	.loc 1 346 0
	subl	$8, %esp
	pushl	$func_ls_call7
	pushl	$.LC6
	call	ls_insert
.LVL19:
	addl	$16, %esp
	.loc 1 347 0
	subl	$8, %esp
	pushl	$func_ls_call8
	pushl	$.LC7
	call	ls_insert
.LVL20:
	addl	$16, %esp
	.loc 1 348 0
	subl	$8, %esp
	pushl	$func_ls_call9
	pushl	$.LC8
	call	ls_insert
.LVL21:
	addl	$16, %esp
	.loc 1 349 0
	subl	$8, %esp
	pushl	$func_ls_call10
	pushl	$.LC9
	call	ls_insert
.LVL22:
	addl	$16, %esp
	.loc 1 350 0
	subl	$8, %esp
	pushl	$func_ls_call11
	pushl	$.LC10
	call	ls_insert
.LVL23:
	addl	$16, %esp
	.loc 1 351 0
	subl	$8, %esp
	pushl	$func_ls_call12
	pushl	$.LC11
	call	ls_insert
.LVL24:
	addl	$16, %esp
	.loc 1 352 0
	subl	$8, %esp
	pushl	$func_ls_call13
	pushl	$.LC12
	call	ls_insert
.LVL25:
	addl	$16, %esp
	.loc 1 353 0
	subl	$8, %esp
	pushl	$func_ls_call14
	pushl	$.LC13
	call	ls_insert
.LVL26:
	addl	$16, %esp
	.loc 1 354 0
	subl	$8, %esp
	pushl	$func_ls_call15
	pushl	$.LC14
	call	ls_insert
.LVL27:
	addl	$16, %esp
	.loc 1 355 0
	subl	$8, %esp
	pushl	$func_ls_call16
	pushl	$.LC15
	call	ls_insert
.LVL28:
	addl	$16, %esp
	.loc 1 356 0
	subl	$8, %esp
	pushl	$func_ls_call17
	pushl	$.LC16
	call	ls_insert
.LVL29:
	addl	$16, %esp
	.loc 1 357 0
	subl	$8, %esp
	pushl	$func_ls_call18
	pushl	$.LC17
	call	ls_insert
.LVL30:
	addl	$16, %esp
	.loc 1 358 0
	subl	$8, %esp
	pushl	$func_ls_call19
	pushl	$.LC18
	call	ls_insert
.LVL31:
	addl	$16, %esp
	.loc 1 359 0
	subl	$8, %esp
	pushl	$func_ls_call20
	pushl	$.LC19
	call	ls_insert
.LVL32:
	addl	$16, %esp
	.loc 1 360 0
	subl	$8, %esp
	pushl	$func_ls_call21
	pushl	$.LC20
	call	ls_insert
.LVL33:
	addl	$16, %esp
	.loc 1 361 0
	subl	$8, %esp
	pushl	$func_ls_call22
	pushl	$.LC21
	call	ls_insert
.LVL34:
	addl	$16, %esp
	.loc 1 362 0
	subl	$8, %esp
	pushl	$func_ls_call23
	pushl	$.LC22
	call	ls_insert
.LVL35:
	addl	$16, %esp
	.loc 1 363 0
	subl	$8, %esp
	pushl	$func_ls_call24
	pushl	$.LC23
	call	ls_insert
.LVL36:
	addl	$16, %esp
	.loc 1 364 0
	subl	$8, %esp
	pushl	$func_ls_call25
	pushl	$.LC24
	call	ls_insert
.LVL37:
	addl	$16, %esp
	.loc 1 365 0
	subl	$8, %esp
	pushl	$func_ls_call26
	pushl	$.LC25
	call	ls_insert
.LVL38:
	addl	$16, %esp
	.loc 1 366 0
	subl	$8, %esp
	pushl	$func_ls_call27
	pushl	$.LC26
	call	ls_insert
.LVL39:
	addl	$16, %esp
	.loc 1 367 0
	subl	$8, %esp
	pushl	$func_ls_call28
	pushl	$.LC27
	call	ls_insert
.LVL40:
	addl	$16, %esp
	.loc 1 368 0
	subl	$8, %esp
	pushl	$func_ls_call29
	pushl	$.LC28
	call	ls_insert
.LVL41:
	addl	$16, %esp
	.loc 1 369 0
	subl	$8, %esp
	pushl	$func_ls_call30
	pushl	$.LC29
	call	ls_insert
.LVL42:
	addl	$16, %esp
	.loc 1 370 0
	subl	$8, %esp
	pushl	$func_ls_call31
	pushl	$.LC30
	call	ls_insert
.LVL43:
	addl	$16, %esp
	.loc 1 371 0
	subl	$8, %esp
	pushl	$func_ls_call32
	pushl	$.LC31
	call	ls_insert
.LVL44:
	addl	$16, %esp
	.loc 1 372 0
	subl	$8, %esp
	pushl	$func_ls_call33
	pushl	$.LC32
	call	ls_insert
.LVL45:
	addl	$16, %esp
	.loc 1 373 0
	subl	$8, %esp
	pushl	$func_ls_call34
	pushl	$.LC33
	call	ls_insert
.LVL46:
	addl	$16, %esp
	.loc 1 374 0
	subl	$8, %esp
	pushl	$func_ls_call35
	pushl	$.LC34
	call	ls_insert
.LVL47:
	addl	$16, %esp
	.loc 1 375 0
	subl	$8, %esp
	pushl	$func_ls_call36
	pushl	$.LC35
	call	ls_insert
.LVL48:
	addl	$16, %esp
	.loc 1 376 0
	subl	$8, %esp
	pushl	$func_ls_call37
	pushl	$.LC36
	call	ls_insert
.LVL49:
	addl	$16, %esp
	.loc 1 377 0
	subl	$8, %esp
	pushl	$func_ls_call38
	pushl	$.LC37
	call	ls_insert
.LVL50:
	addl	$16, %esp
	.loc 1 378 0
	subl	$8, %esp
	pushl	$func_ls_call39
	pushl	$.LC38
	call	ls_insert
.LVL51:
	addl	$16, %esp
	.loc 1 379 0
	subl	$8, %esp
	pushl	$func_ls_call40
	pushl	$.LC39
	call	ls_insert
.LVL52:
	addl	$16, %esp
	.loc 1 380 0
	subl	$8, %esp
	pushl	$func_ls_call41
	pushl	$.LC40
	call	ls_insert
.LVL53:
	addl	$16, %esp
	.loc 1 381 0
	subl	$8, %esp
	pushl	$func_ls_call42
	pushl	$.LC41
	call	ls_insert
.LVL54:
	addl	$16, %esp
	.loc 1 382 0
	subl	$8, %esp
	pushl	$func_ls_call43
	pushl	$.LC42
	call	ls_insert
.LVL55:
	addl	$16, %esp
	.loc 1 383 0
	subl	$8, %esp
	pushl	$func_ls_call44
	pushl	$.LC43
	call	ls_insert
.LVL56:
	addl	$16, %esp
	.loc 1 384 0
	subl	$8, %esp
	pushl	$func_ls_call45
	pushl	$.LC44
	call	ls_insert
.LVL57:
	addl	$16, %esp
	.loc 1 385 0
	subl	$8, %esp
	pushl	$func_ls_call46
	pushl	$.LC45
	call	ls_insert
.LVL58:
	addl	$16, %esp
	.loc 1 386 0
	subl	$8, %esp
	pushl	$func_ls_call47
	pushl	$.LC46
	call	ls_insert
.LVL59:
	addl	$16, %esp
	.loc 1 387 0
	subl	$8, %esp
	pushl	$func_ls_call48
	pushl	$.LC47
	call	ls_insert
.LVL60:
	addl	$16, %esp
	.loc 1 388 0
	subl	$8, %esp
	pushl	$func_ls_call49
	pushl	$.LC48
	call	ls_insert
.LVL61:
	addl	$16, %esp
	.loc 1 389 0
	subl	$8, %esp
	pushl	$func_ls_call50
	pushl	$.LC49
	call	ls_insert
.LVL62:
	addl	$16, %esp
	.loc 1 390 0
	movl	$1, %eax
	.loc 1 391 0
	leave
.LCFI167:
	.cfi_restore 5
	.cfi_def_cfa 4, 4
	ret
	.cfi_endproc
.LFE75:
	.size	sys_ls_init, .-sys_ls_init
	.globl	ls_syscall
	.type	ls_syscall, @function
ls_syscall:
.LFB76:
	.loc 1 396 0
	.cfi_startproc
	pushl	%ebp
.LCFI168:
	.cfi_def_cfa_offset 8
	.cfi_offset 5, -8
	movl	%esp, %ebp
.LCFI169:
	.cfi_def_cfa_register 5
	pushl	%ebx
	subl	$20, %esp
	.cfi_offset 3, -12
	.loc 1 397 0
	movl	%gs:4, %eax
	movl	24(%eax), %eax
	movl	28(%eax), %eax
	movl	%eax, -12(%ebp)
.LVL63:
	.loc 1 398 0
	cmpl	$0, -12(%ebp)
	je	.L127
	.loc 1 399 0
	movl	%gs:4, %eax
.LVL64:
	movl	24(%eax), %ebx
	pushl	-12(%ebp)
.LVL65:
	call	ls_call
.LVL66:
	addl	$4, %esp
	call	*%eax
.LVL67:
	movl	%eax, 28(%ebx)
	.loc 1 403 0
	jmp	.L129
.LVL68:
.L127:
	.loc 1 401 0
	movl	%gs:4, %eax
.LVL69:
	movl	24(%eax), %eax
	movl	$-1, 28(%eax)
.LVL70:
.L129:
	.loc 1 403 0
	nop
	movl	-4(%ebp), %ebx
	leave
.LCFI170:
	.cfi_restore 5
	.cfi_restore 3
	.cfi_def_cfa 4, 4
.LVL71:
	ret
	.cfi_endproc
.LFE76:
	.size	ls_syscall, .-ls_syscall
	.globl	func_ht_call1
	.type	func_ht_call1, @function
func_ht_call1:
.LFB77:
	.loc 1 412 0
	.cfi_startproc
	pushl	%ebp
.LCFI171:
	.cfi_def_cfa_offset 8
	.cfi_offset 5, -8
	movl	%esp, %ebp
.LCFI172:
	.cfi_def_cfa_register 5
	.loc 1 413 0
	movl	$1, %eax
	.loc 1 414 0
	popl	%ebp
.LCFI173:
	.cfi_restore 5
	.cfi_def_cfa 4, 4
	ret
	.cfi_endproc
.LFE77:
	.size	func_ht_call1, .-func_ht_call1
	.globl	func_ht_call2
	.type	func_ht_call2, @function
func_ht_call2:
.LFB78:
	.loc 1 416 0
	.cfi_startproc
	pushl	%ebp
.LCFI174:
	.cfi_def_cfa_offset 8
	.cfi_offset 5, -8
	movl	%esp, %ebp
.LCFI175:
	.cfi_def_cfa_register 5
	.loc 1 417 0
	movl	$2, %eax
	.loc 1 418 0
	popl	%ebp
.LCFI176:
	.cfi_restore 5
	.cfi_def_cfa 4, 4
	ret
	.cfi_endproc
.LFE78:
	.size	func_ht_call2, .-func_ht_call2
	.globl	func_ht_call3
	.type	func_ht_call3, @function
func_ht_call3:
.LFB79:
	.loc 1 420 0
	.cfi_startproc
	pushl	%ebp
.LCFI177:
	.cfi_def_cfa_offset 8
	.cfi_offset 5, -8
	movl	%esp, %ebp
.LCFI178:
	.cfi_def_cfa_register 5
	.loc 1 421 0
	movl	$3, %eax
	.loc 1 422 0
	popl	%ebp
.LCFI179:
	.cfi_restore 5
	.cfi_def_cfa 4, 4
	ret
	.cfi_endproc
.LFE79:
	.size	func_ht_call3, .-func_ht_call3
	.globl	func_ht_call4
	.type	func_ht_call4, @function
func_ht_call4:
.LFB80:
	.loc 1 424 0
	.cfi_startproc
	pushl	%ebp
.LCFI180:
	.cfi_def_cfa_offset 8
	.cfi_offset 5, -8
	movl	%esp, %ebp
.LCFI181:
	.cfi_def_cfa_register 5
	.loc 1 425 0
	movl	$4, %eax
	.loc 1 426 0
	popl	%ebp
.LCFI182:
	.cfi_restore 5
	.cfi_def_cfa 4, 4
	ret
	.cfi_endproc
.LFE80:
	.size	func_ht_call4, .-func_ht_call4
	.globl	func_ht_call5
	.type	func_ht_call5, @function
func_ht_call5:
.LFB81:
	.loc 1 428 0
	.cfi_startproc
	pushl	%ebp
.LCFI183:
	.cfi_def_cfa_offset 8
	.cfi_offset 5, -8
	movl	%esp, %ebp
.LCFI184:
	.cfi_def_cfa_register 5
	.loc 1 429 0
	movl	$5, %eax
	.loc 1 430 0
	popl	%ebp
.LCFI185:
	.cfi_restore 5
	.cfi_def_cfa 4, 4
	ret
	.cfi_endproc
.LFE81:
	.size	func_ht_call5, .-func_ht_call5
	.globl	func_ht_call6
	.type	func_ht_call6, @function
func_ht_call6:
.LFB82:
	.loc 1 432 0
	.cfi_startproc
	pushl	%ebp
.LCFI186:
	.cfi_def_cfa_offset 8
	.cfi_offset 5, -8
	movl	%esp, %ebp
.LCFI187:
	.cfi_def_cfa_register 5
	.loc 1 433 0
	movl	$6, %eax
	.loc 1 434 0
	popl	%ebp
.LCFI188:
	.cfi_restore 5
	.cfi_def_cfa 4, 4
	ret
	.cfi_endproc
.LFE82:
	.size	func_ht_call6, .-func_ht_call6
	.globl	func_ht_call7
	.type	func_ht_call7, @function
func_ht_call7:
.LFB83:
	.loc 1 436 0
	.cfi_startproc
	pushl	%ebp
.LCFI189:
	.cfi_def_cfa_offset 8
	.cfi_offset 5, -8
	movl	%esp, %ebp
.LCFI190:
	.cfi_def_cfa_register 5
	.loc 1 437 0
	movl	$7, %eax
	.loc 1 438 0
	popl	%ebp
.LCFI191:
	.cfi_restore 5
	.cfi_def_cfa 4, 4
	ret
	.cfi_endproc
.LFE83:
	.size	func_ht_call7, .-func_ht_call7
	.globl	func_ht_call8
	.type	func_ht_call8, @function
func_ht_call8:
.LFB84:
	.loc 1 440 0
	.cfi_startproc
	pushl	%ebp
.LCFI192:
	.cfi_def_cfa_offset 8
	.cfi_offset 5, -8
	movl	%esp, %ebp
.LCFI193:
	.cfi_def_cfa_register 5
	.loc 1 441 0
	movl	$8, %eax
	.loc 1 442 0
	popl	%ebp
.LCFI194:
	.cfi_restore 5
	.cfi_def_cfa 4, 4
	ret
	.cfi_endproc
.LFE84:
	.size	func_ht_call8, .-func_ht_call8
	.globl	func_ht_call9
	.type	func_ht_call9, @function
func_ht_call9:
.LFB85:
	.loc 1 444 0
	.cfi_startproc
	pushl	%ebp
.LCFI195:
	.cfi_def_cfa_offset 8
	.cfi_offset 5, -8
	movl	%esp, %ebp
.LCFI196:
	.cfi_def_cfa_register 5
	.loc 1 445 0
	movl	$9, %eax
	.loc 1 446 0
	popl	%ebp
.LCFI197:
	.cfi_restore 5
	.cfi_def_cfa 4, 4
	ret
	.cfi_endproc
.LFE85:
	.size	func_ht_call9, .-func_ht_call9
	.globl	func_ht_call10
	.type	func_ht_call10, @function
func_ht_call10:
.LFB86:
	.loc 1 448 0
	.cfi_startproc
	pushl	%ebp
.LCFI198:
	.cfi_def_cfa_offset 8
	.cfi_offset 5, -8
	movl	%esp, %ebp
.LCFI199:
	.cfi_def_cfa_register 5
	.loc 1 449 0
	movl	$10, %eax
	.loc 1 450 0
	popl	%ebp
.LCFI200:
	.cfi_restore 5
	.cfi_def_cfa 4, 4
	ret
	.cfi_endproc
.LFE86:
	.size	func_ht_call10, .-func_ht_call10
	.globl	func_ht_call11
	.type	func_ht_call11, @function
func_ht_call11:
.LFB87:
	.loc 1 452 0
	.cfi_startproc
	pushl	%ebp
.LCFI201:
	.cfi_def_cfa_offset 8
	.cfi_offset 5, -8
	movl	%esp, %ebp
.LCFI202:
	.cfi_def_cfa_register 5
	.loc 1 453 0
	movl	$11, %eax
	.loc 1 454 0
	popl	%ebp
.LCFI203:
	.cfi_restore 5
	.cfi_def_cfa 4, 4
	ret
	.cfi_endproc
.LFE87:
	.size	func_ht_call11, .-func_ht_call11
	.globl	func_ht_call12
	.type	func_ht_call12, @function
func_ht_call12:
.LFB88:
	.loc 1 456 0
	.cfi_startproc
	pushl	%ebp
.LCFI204:
	.cfi_def_cfa_offset 8
	.cfi_offset 5, -8
	movl	%esp, %ebp
.LCFI205:
	.cfi_def_cfa_register 5
	.loc 1 457 0
	movl	$12, %eax
	.loc 1 458 0
	popl	%ebp
.LCFI206:
	.cfi_restore 5
	.cfi_def_cfa 4, 4
	ret
	.cfi_endproc
.LFE88:
	.size	func_ht_call12, .-func_ht_call12
	.globl	func_ht_call13
	.type	func_ht_call13, @function
func_ht_call13:
.LFB89:
	.loc 1 460 0
	.cfi_startproc
	pushl	%ebp
.LCFI207:
	.cfi_def_cfa_offset 8
	.cfi_offset 5, -8
	movl	%esp, %ebp
.LCFI208:
	.cfi_def_cfa_register 5
	.loc 1 461 0
	movl	$13, %eax
	.loc 1 462 0
	popl	%ebp
.LCFI209:
	.cfi_restore 5
	.cfi_def_cfa 4, 4
	ret
	.cfi_endproc
.LFE89:
	.size	func_ht_call13, .-func_ht_call13
	.globl	func_ht_call14
	.type	func_ht_call14, @function
func_ht_call14:
.LFB90:
	.loc 1 464 0
	.cfi_startproc
	pushl	%ebp
.LCFI210:
	.cfi_def_cfa_offset 8
	.cfi_offset 5, -8
	movl	%esp, %ebp
.LCFI211:
	.cfi_def_cfa_register 5
	.loc 1 465 0
	movl	$14, %eax
	.loc 1 466 0
	popl	%ebp
.LCFI212:
	.cfi_restore 5
	.cfi_def_cfa 4, 4
	ret
	.cfi_endproc
.LFE90:
	.size	func_ht_call14, .-func_ht_call14
	.globl	func_ht_call15
	.type	func_ht_call15, @function
func_ht_call15:
.LFB91:
	.loc 1 468 0
	.cfi_startproc
	pushl	%ebp
.LCFI213:
	.cfi_def_cfa_offset 8
	.cfi_offset 5, -8
	movl	%esp, %ebp
.LCFI214:
	.cfi_def_cfa_register 5
	.loc 1 469 0
	movl	$15, %eax
	.loc 1 470 0
	popl	%ebp
.LCFI215:
	.cfi_restore 5
	.cfi_def_cfa 4, 4
	ret
	.cfi_endproc
.LFE91:
	.size	func_ht_call15, .-func_ht_call15
	.globl	func_ht_call16
	.type	func_ht_call16, @function
func_ht_call16:
.LFB92:
	.loc 1 472 0
	.cfi_startproc
	pushl	%ebp
.LCFI216:
	.cfi_def_cfa_offset 8
	.cfi_offset 5, -8
	movl	%esp, %ebp
.LCFI217:
	.cfi_def_cfa_register 5
	.loc 1 473 0
	movl	$16, %eax
	.loc 1 474 0
	popl	%ebp
.LCFI218:
	.cfi_restore 5
	.cfi_def_cfa 4, 4
	ret
	.cfi_endproc
.LFE92:
	.size	func_ht_call16, .-func_ht_call16
	.globl	func_ht_call17
	.type	func_ht_call17, @function
func_ht_call17:
.LFB93:
	.loc 1 476 0
	.cfi_startproc
	pushl	%ebp
.LCFI219:
	.cfi_def_cfa_offset 8
	.cfi_offset 5, -8
	movl	%esp, %ebp
.LCFI220:
	.cfi_def_cfa_register 5
	.loc 1 477 0
	movl	$17, %eax
	.loc 1 478 0
	popl	%ebp
.LCFI221:
	.cfi_restore 5
	.cfi_def_cfa 4, 4
	ret
	.cfi_endproc
.LFE93:
	.size	func_ht_call17, .-func_ht_call17
	.globl	func_ht_call18
	.type	func_ht_call18, @function
func_ht_call18:
.LFB94:
	.loc 1 480 0
	.cfi_startproc
	pushl	%ebp
.LCFI222:
	.cfi_def_cfa_offset 8
	.cfi_offset 5, -8
	movl	%esp, %ebp
.LCFI223:
	.cfi_def_cfa_register 5
	.loc 1 481 0
	movl	$18, %eax
	.loc 1 482 0
	popl	%ebp
.LCFI224:
	.cfi_restore 5
	.cfi_def_cfa 4, 4
	ret
	.cfi_endproc
.LFE94:
	.size	func_ht_call18, .-func_ht_call18
	.globl	func_ht_call19
	.type	func_ht_call19, @function
func_ht_call19:
.LFB95:
	.loc 1 484 0
	.cfi_startproc
	pushl	%ebp
.LCFI225:
	.cfi_def_cfa_offset 8
	.cfi_offset 5, -8
	movl	%esp, %ebp
.LCFI226:
	.cfi_def_cfa_register 5
	.loc 1 485 0
	movl	$19, %eax
	.loc 1 486 0
	popl	%ebp
.LCFI227:
	.cfi_restore 5
	.cfi_def_cfa 4, 4
	ret
	.cfi_endproc
.LFE95:
	.size	func_ht_call19, .-func_ht_call19
	.globl	func_ht_call20
	.type	func_ht_call20, @function
func_ht_call20:
.LFB96:
	.loc 1 488 0
	.cfi_startproc
	pushl	%ebp
.LCFI228:
	.cfi_def_cfa_offset 8
	.cfi_offset 5, -8
	movl	%esp, %ebp
.LCFI229:
	.cfi_def_cfa_register 5
	.loc 1 489 0
	movl	$20, %eax
	.loc 1 490 0
	popl	%ebp
.LCFI230:
	.cfi_restore 5
	.cfi_def_cfa 4, 4
	ret
	.cfi_endproc
.LFE96:
	.size	func_ht_call20, .-func_ht_call20
	.globl	func_ht_call21
	.type	func_ht_call21, @function
func_ht_call21:
.LFB97:
	.loc 1 493 0
	.cfi_startproc
	pushl	%ebp
.LCFI231:
	.cfi_def_cfa_offset 8
	.cfi_offset 5, -8
	movl	%esp, %ebp
.LCFI232:
	.cfi_def_cfa_register 5
	.loc 1 494 0
	movl	$21, %eax
	.loc 1 495 0
	popl	%ebp
.LCFI233:
	.cfi_restore 5
	.cfi_def_cfa 4, 4
	ret
	.cfi_endproc
.LFE97:
	.size	func_ht_call21, .-func_ht_call21
	.globl	func_ht_call22
	.type	func_ht_call22, @function
func_ht_call22:
.LFB98:
	.loc 1 497 0
	.cfi_startproc
	pushl	%ebp
.LCFI234:
	.cfi_def_cfa_offset 8
	.cfi_offset 5, -8
	movl	%esp, %ebp
.LCFI235:
	.cfi_def_cfa_register 5
	.loc 1 498 0
	movl	$22, %eax
	.loc 1 499 0
	popl	%ebp
.LCFI236:
	.cfi_restore 5
	.cfi_def_cfa 4, 4
	ret
	.cfi_endproc
.LFE98:
	.size	func_ht_call22, .-func_ht_call22
	.globl	func_ht_call23
	.type	func_ht_call23, @function
func_ht_call23:
.LFB99:
	.loc 1 501 0
	.cfi_startproc
	pushl	%ebp
.LCFI237:
	.cfi_def_cfa_offset 8
	.cfi_offset 5, -8
	movl	%esp, %ebp
.LCFI238:
	.cfi_def_cfa_register 5
	.loc 1 502 0
	movl	$23, %eax
	.loc 1 503 0
	popl	%ebp
.LCFI239:
	.cfi_restore 5
	.cfi_def_cfa 4, 4
	ret
	.cfi_endproc
.LFE99:
	.size	func_ht_call23, .-func_ht_call23
	.globl	func_ht_call24
	.type	func_ht_call24, @function
func_ht_call24:
.LFB100:
	.loc 1 505 0
	.cfi_startproc
	pushl	%ebp
.LCFI240:
	.cfi_def_cfa_offset 8
	.cfi_offset 5, -8
	movl	%esp, %ebp
.LCFI241:
	.cfi_def_cfa_register 5
	.loc 1 506 0
	movl	$24, %eax
	.loc 1 507 0
	popl	%ebp
.LCFI242:
	.cfi_restore 5
	.cfi_def_cfa 4, 4
	ret
	.cfi_endproc
.LFE100:
	.size	func_ht_call24, .-func_ht_call24
	.globl	func_ht_call25
	.type	func_ht_call25, @function
func_ht_call25:
.LFB101:
	.loc 1 509 0
	.cfi_startproc
	pushl	%ebp
.LCFI243:
	.cfi_def_cfa_offset 8
	.cfi_offset 5, -8
	movl	%esp, %ebp
.LCFI244:
	.cfi_def_cfa_register 5
	.loc 1 510 0
	movl	$25, %eax
	.loc 1 511 0
	popl	%ebp
.LCFI245:
	.cfi_restore 5
	.cfi_def_cfa 4, 4
	ret
	.cfi_endproc
.LFE101:
	.size	func_ht_call25, .-func_ht_call25
	.globl	func_ht_call26
	.type	func_ht_call26, @function
func_ht_call26:
.LFB102:
	.loc 1 513 0
	.cfi_startproc
	pushl	%ebp
.LCFI246:
	.cfi_def_cfa_offset 8
	.cfi_offset 5, -8
	movl	%esp, %ebp
.LCFI247:
	.cfi_def_cfa_register 5
	.loc 1 514 0
	movl	$26, %eax
	.loc 1 515 0
	popl	%ebp
.LCFI248:
	.cfi_restore 5
	.cfi_def_cfa 4, 4
	ret
	.cfi_endproc
.LFE102:
	.size	func_ht_call26, .-func_ht_call26
	.globl	func_ht_call27
	.type	func_ht_call27, @function
func_ht_call27:
.LFB103:
	.loc 1 517 0
	.cfi_startproc
	pushl	%ebp
.LCFI249:
	.cfi_def_cfa_offset 8
	.cfi_offset 5, -8
	movl	%esp, %ebp
.LCFI250:
	.cfi_def_cfa_register 5
	.loc 1 518 0
	movl	$27, %eax
	.loc 1 519 0
	popl	%ebp
.LCFI251:
	.cfi_restore 5
	.cfi_def_cfa 4, 4
	ret
	.cfi_endproc
.LFE103:
	.size	func_ht_call27, .-func_ht_call27
	.globl	func_ht_call28
	.type	func_ht_call28, @function
func_ht_call28:
.LFB104:
	.loc 1 521 0
	.cfi_startproc
	pushl	%ebp
.LCFI252:
	.cfi_def_cfa_offset 8
	.cfi_offset 5, -8
	movl	%esp, %ebp
.LCFI253:
	.cfi_def_cfa_register 5
	.loc 1 522 0
	movl	$28, %eax
	.loc 1 523 0
	popl	%ebp
.LCFI254:
	.cfi_restore 5
	.cfi_def_cfa 4, 4
	ret
	.cfi_endproc
.LFE104:
	.size	func_ht_call28, .-func_ht_call28
	.globl	func_ht_call29
	.type	func_ht_call29, @function
func_ht_call29:
.LFB105:
	.loc 1 525 0
	.cfi_startproc
	pushl	%ebp
.LCFI255:
	.cfi_def_cfa_offset 8
	.cfi_offset 5, -8
	movl	%esp, %ebp
.LCFI256:
	.cfi_def_cfa_register 5
	.loc 1 526 0
	movl	$29, %eax
	.loc 1 527 0
	popl	%ebp
.LCFI257:
	.cfi_restore 5
	.cfi_def_cfa 4, 4
	ret
	.cfi_endproc
.LFE105:
	.size	func_ht_call29, .-func_ht_call29
	.globl	func_ht_call30
	.type	func_ht_call30, @function
func_ht_call30:
.LFB106:
	.loc 1 529 0
	.cfi_startproc
	pushl	%ebp
.LCFI258:
	.cfi_def_cfa_offset 8
	.cfi_offset 5, -8
	movl	%esp, %ebp
.LCFI259:
	.cfi_def_cfa_register 5
	.loc 1 530 0
	movl	$30, %eax
	.loc 1 531 0
	popl	%ebp
.LCFI260:
	.cfi_restore 5
	.cfi_def_cfa 4, 4
	ret
	.cfi_endproc
.LFE106:
	.size	func_ht_call30, .-func_ht_call30
	.globl	func_ht_call31
	.type	func_ht_call31, @function
func_ht_call31:
.LFB107:
	.loc 1 533 0
	.cfi_startproc
	pushl	%ebp
.LCFI261:
	.cfi_def_cfa_offset 8
	.cfi_offset 5, -8
	movl	%esp, %ebp
.LCFI262:
	.cfi_def_cfa_register 5
	.loc 1 534 0
	movl	$31, %eax
	.loc 1 535 0
	popl	%ebp
.LCFI263:
	.cfi_restore 5
	.cfi_def_cfa 4, 4
	ret
	.cfi_endproc
.LFE107:
	.size	func_ht_call31, .-func_ht_call31
	.globl	func_ht_call32
	.type	func_ht_call32, @function
func_ht_call32:
.LFB108:
	.loc 1 537 0
	.cfi_startproc
	pushl	%ebp
.LCFI264:
	.cfi_def_cfa_offset 8
	.cfi_offset 5, -8
	movl	%esp, %ebp
.LCFI265:
	.cfi_def_cfa_register 5
	.loc 1 538 0
	movl	$32, %eax
	.loc 1 539 0
	popl	%ebp
.LCFI266:
	.cfi_restore 5
	.cfi_def_cfa 4, 4
	ret
	.cfi_endproc
.LFE108:
	.size	func_ht_call32, .-func_ht_call32
	.globl	func_ht_call33
	.type	func_ht_call33, @function
func_ht_call33:
.LFB109:
	.loc 1 541 0
	.cfi_startproc
	pushl	%ebp
.LCFI267:
	.cfi_def_cfa_offset 8
	.cfi_offset 5, -8
	movl	%esp, %ebp
.LCFI268:
	.cfi_def_cfa_register 5
	.loc 1 542 0
	movl	$33, %eax
	.loc 1 543 0
	popl	%ebp
.LCFI269:
	.cfi_restore 5
	.cfi_def_cfa 4, 4
	ret
	.cfi_endproc
.LFE109:
	.size	func_ht_call33, .-func_ht_call33
	.globl	func_ht_call34
	.type	func_ht_call34, @function
func_ht_call34:
.LFB110:
	.loc 1 545 0
	.cfi_startproc
	pushl	%ebp
.LCFI270:
	.cfi_def_cfa_offset 8
	.cfi_offset 5, -8
	movl	%esp, %ebp
.LCFI271:
	.cfi_def_cfa_register 5
	.loc 1 546 0
	movl	$34, %eax
	.loc 1 547 0
	popl	%ebp
.LCFI272:
	.cfi_restore 5
	.cfi_def_cfa 4, 4
	ret
	.cfi_endproc
.LFE110:
	.size	func_ht_call34, .-func_ht_call34
	.globl	func_ht_call35
	.type	func_ht_call35, @function
func_ht_call35:
.LFB111:
	.loc 1 549 0
	.cfi_startproc
	pushl	%ebp
.LCFI273:
	.cfi_def_cfa_offset 8
	.cfi_offset 5, -8
	movl	%esp, %ebp
.LCFI274:
	.cfi_def_cfa_register 5
	.loc 1 550 0
	movl	$35, %eax
	.loc 1 551 0
	popl	%ebp
.LCFI275:
	.cfi_restore 5
	.cfi_def_cfa 4, 4
	ret
	.cfi_endproc
.LFE111:
	.size	func_ht_call35, .-func_ht_call35
	.globl	func_ht_call36
	.type	func_ht_call36, @function
func_ht_call36:
.LFB112:
	.loc 1 553 0
	.cfi_startproc
	pushl	%ebp
.LCFI276:
	.cfi_def_cfa_offset 8
	.cfi_offset 5, -8
	movl	%esp, %ebp
.LCFI277:
	.cfi_def_cfa_register 5
	.loc 1 554 0
	movl	$36, %eax
	.loc 1 555 0
	popl	%ebp
.LCFI278:
	.cfi_restore 5
	.cfi_def_cfa 4, 4
	ret
	.cfi_endproc
.LFE112:
	.size	func_ht_call36, .-func_ht_call36
	.globl	func_ht_call37
	.type	func_ht_call37, @function
func_ht_call37:
.LFB113:
	.loc 1 557 0
	.cfi_startproc
	pushl	%ebp
.LCFI279:
	.cfi_def_cfa_offset 8
	.cfi_offset 5, -8
	movl	%esp, %ebp
.LCFI280:
	.cfi_def_cfa_register 5
	.loc 1 558 0
	movl	$37, %eax
	.loc 1 559 0
	popl	%ebp
.LCFI281:
	.cfi_restore 5
	.cfi_def_cfa 4, 4
	ret
	.cfi_endproc
.LFE113:
	.size	func_ht_call37, .-func_ht_call37
	.globl	func_ht_call38
	.type	func_ht_call38, @function
func_ht_call38:
.LFB114:
	.loc 1 561 0
	.cfi_startproc
	pushl	%ebp
.LCFI282:
	.cfi_def_cfa_offset 8
	.cfi_offset 5, -8
	movl	%esp, %ebp
.LCFI283:
	.cfi_def_cfa_register 5
	.loc 1 562 0
	movl	$38, %eax
	.loc 1 563 0
	popl	%ebp
.LCFI284:
	.cfi_restore 5
	.cfi_def_cfa 4, 4
	ret
	.cfi_endproc
.LFE114:
	.size	func_ht_call38, .-func_ht_call38
	.globl	func_ht_call39
	.type	func_ht_call39, @function
func_ht_call39:
.LFB115:
	.loc 1 565 0
	.cfi_startproc
	pushl	%ebp
.LCFI285:
	.cfi_def_cfa_offset 8
	.cfi_offset 5, -8
	movl	%esp, %ebp
.LCFI286:
	.cfi_def_cfa_register 5
	.loc 1 566 0
	movl	$39, %eax
	.loc 1 567 0
	popl	%ebp
.LCFI287:
	.cfi_restore 5
	.cfi_def_cfa 4, 4
	ret
	.cfi_endproc
.LFE115:
	.size	func_ht_call39, .-func_ht_call39
	.globl	func_ht_call40
	.type	func_ht_call40, @function
func_ht_call40:
.LFB116:
	.loc 1 569 0
	.cfi_startproc
	pushl	%ebp
.LCFI288:
	.cfi_def_cfa_offset 8
	.cfi_offset 5, -8
	movl	%esp, %ebp
.LCFI289:
	.cfi_def_cfa_register 5
	.loc 1 570 0
	movl	$40, %eax
	.loc 1 571 0
	popl	%ebp
.LCFI290:
	.cfi_restore 5
	.cfi_def_cfa 4, 4
	ret
	.cfi_endproc
.LFE116:
	.size	func_ht_call40, .-func_ht_call40
	.globl	func_ht_call41
	.type	func_ht_call41, @function
func_ht_call41:
.LFB117:
	.loc 1 573 0
	.cfi_startproc
	pushl	%ebp
.LCFI291:
	.cfi_def_cfa_offset 8
	.cfi_offset 5, -8
	movl	%esp, %ebp
.LCFI292:
	.cfi_def_cfa_register 5
	.loc 1 574 0
	movl	$41, %eax
	.loc 1 575 0
	popl	%ebp
.LCFI293:
	.cfi_restore 5
	.cfi_def_cfa 4, 4
	ret
	.cfi_endproc
.LFE117:
	.size	func_ht_call41, .-func_ht_call41
	.globl	func_ht_call42
	.type	func_ht_call42, @function
func_ht_call42:
.LFB118:
	.loc 1 577 0
	.cfi_startproc
	pushl	%ebp
.LCFI294:
	.cfi_def_cfa_offset 8
	.cfi_offset 5, -8
	movl	%esp, %ebp
.LCFI295:
	.cfi_def_cfa_register 5
	.loc 1 578 0
	movl	$42, %eax
	.loc 1 579 0
	popl	%ebp
.LCFI296:
	.cfi_restore 5
	.cfi_def_cfa 4, 4
	ret
	.cfi_endproc
.LFE118:
	.size	func_ht_call42, .-func_ht_call42
	.globl	func_ht_call43
	.type	func_ht_call43, @function
func_ht_call43:
.LFB119:
	.loc 1 581 0
	.cfi_startproc
	pushl	%ebp
.LCFI297:
	.cfi_def_cfa_offset 8
	.cfi_offset 5, -8
	movl	%esp, %ebp
.LCFI298:
	.cfi_def_cfa_register 5
	.loc 1 582 0
	movl	$43, %eax
	.loc 1 583 0
	popl	%ebp
.LCFI299:
	.cfi_restore 5
	.cfi_def_cfa 4, 4
	ret
	.cfi_endproc
.LFE119:
	.size	func_ht_call43, .-func_ht_call43
	.globl	func_ht_call44
	.type	func_ht_call44, @function
func_ht_call44:
.LFB120:
	.loc 1 585 0
	.cfi_startproc
	pushl	%ebp
.LCFI300:
	.cfi_def_cfa_offset 8
	.cfi_offset 5, -8
	movl	%esp, %ebp
.LCFI301:
	.cfi_def_cfa_register 5
	.loc 1 586 0
	movl	$44, %eax
	.loc 1 587 0
	popl	%ebp
.LCFI302:
	.cfi_restore 5
	.cfi_def_cfa 4, 4
	ret
	.cfi_endproc
.LFE120:
	.size	func_ht_call44, .-func_ht_call44
	.globl	func_ht_call45
	.type	func_ht_call45, @function
func_ht_call45:
.LFB121:
	.loc 1 589 0
	.cfi_startproc
	pushl	%ebp
.LCFI303:
	.cfi_def_cfa_offset 8
	.cfi_offset 5, -8
	movl	%esp, %ebp
.LCFI304:
	.cfi_def_cfa_register 5
	.loc 1 590 0
	movl	$45, %eax
	.loc 1 591 0
	popl	%ebp
.LCFI305:
	.cfi_restore 5
	.cfi_def_cfa 4, 4
	ret
	.cfi_endproc
.LFE121:
	.size	func_ht_call45, .-func_ht_call45
	.globl	func_ht_call46
	.type	func_ht_call46, @function
func_ht_call46:
.LFB122:
	.loc 1 593 0
	.cfi_startproc
	pushl	%ebp
.LCFI306:
	.cfi_def_cfa_offset 8
	.cfi_offset 5, -8
	movl	%esp, %ebp
.LCFI307:
	.cfi_def_cfa_register 5
	.loc 1 594 0
	movl	$46, %eax
	.loc 1 595 0
	popl	%ebp
.LCFI308:
	.cfi_restore 5
	.cfi_def_cfa 4, 4
	ret
	.cfi_endproc
.LFE122:
	.size	func_ht_call46, .-func_ht_call46
	.globl	func_ht_call47
	.type	func_ht_call47, @function
func_ht_call47:
.LFB123:
	.loc 1 597 0
	.cfi_startproc
	pushl	%ebp
.LCFI309:
	.cfi_def_cfa_offset 8
	.cfi_offset 5, -8
	movl	%esp, %ebp
.LCFI310:
	.cfi_def_cfa_register 5
	.loc 1 598 0
	movl	$47, %eax
	.loc 1 599 0
	popl	%ebp
.LCFI311:
	.cfi_restore 5
	.cfi_def_cfa 4, 4
	ret
	.cfi_endproc
.LFE123:
	.size	func_ht_call47, .-func_ht_call47
	.globl	func_ht_call48
	.type	func_ht_call48, @function
func_ht_call48:
.LFB124:
	.loc 1 601 0
	.cfi_startproc
	pushl	%ebp
.LCFI312:
	.cfi_def_cfa_offset 8
	.cfi_offset 5, -8
	movl	%esp, %ebp
.LCFI313:
	.cfi_def_cfa_register 5
	.loc 1 602 0
	movl	$48, %eax
	.loc 1 603 0
	popl	%ebp
.LCFI314:
	.cfi_restore 5
	.cfi_def_cfa 4, 4
	ret
	.cfi_endproc
.LFE124:
	.size	func_ht_call48, .-func_ht_call48
	.globl	func_ht_call49
	.type	func_ht_call49, @function
func_ht_call49:
.LFB125:
	.loc 1 605 0
	.cfi_startproc
	pushl	%ebp
.LCFI315:
	.cfi_def_cfa_offset 8
	.cfi_offset 5, -8
	movl	%esp, %ebp
.LCFI316:
	.cfi_def_cfa_register 5
	.loc 1 606 0
	movl	$49, %eax
	.loc 1 607 0
	popl	%ebp
.LCFI317:
	.cfi_restore 5
	.cfi_def_cfa 4, 4
	ret
	.cfi_endproc
.LFE125:
	.size	func_ht_call49, .-func_ht_call49
	.globl	func_ht_call50
	.type	func_ht_call50, @function
func_ht_call50:
.LFB126:
	.loc 1 609 0
	.cfi_startproc
	pushl	%ebp
.LCFI318:
	.cfi_def_cfa_offset 8
	.cfi_offset 5, -8
	movl	%esp, %ebp
.LCFI319:
	.cfi_def_cfa_register 5
	.loc 1 610 0
	movl	$50, %eax
	.loc 1 611 0
	popl	%ebp
.LCFI320:
	.cfi_restore 5
	.cfi_def_cfa 4, 4
	ret
	.cfi_endproc
.LFE126:
	.size	func_ht_call50, .-func_ht_call50
	.globl	hash
	.type	hash, @function
hash:
.LFB127:
	.loc 1 614 0
	.cfi_startproc
.LVL72:
	pushl	%ebp
.LCFI321:
	.cfi_def_cfa_offset 8
	.cfi_offset 5, -8
	movl	%esp, %ebp
.LCFI322:
	.cfi_def_cfa_register 5
	subl	$16, %esp
	.loc 1 615 0
	movl	$0, -4(%ebp)
.LVL73:
	.loc 1 616 0
	jmp	.L231
.L232:
	.loc 1 617 0
	movl	8(%ebp), %eax
	movzbl	(%eax), %eax
	movsbl	%al, %eax
	addl	%eax, -4(%ebp)
.LVL74:
	.loc 1 618 0
	addl	$1, 8(%ebp)
.LVL75:
.L231:
	.loc 1 616 0
	movl	8(%ebp), %eax
	movzbl	(%eax), %eax
	testb	%al, %al
	jne	.L232
	.loc 1 620 0
	movl	-4(%ebp), %ecx
	movl	$274877907, %edx
	movl	%ecx, %eax
	imull	%edx
	sarl	$6, %edx
	movl	%ecx, %eax
	sarl	$31, %eax
	subl	%eax, %edx
	movl	%edx, %eax
	imull	$1000, %eax, %eax
	subl	%eax, %ecx
	movl	%ecx, %eax
	.loc 1 621 0
	leave
.LCFI323:
	.cfi_restore 5
	.cfi_def_cfa 4, 4
	ret
	.cfi_endproc
.LFE127:
	.size	hash, .-hash
	.local	ht_syscalls
	.comm	ht_syscalls,4000,32
	.local	hash_Key
	.comm	hash_Key,4000,32
	.globl	rehash
	.type	rehash, @function
rehash:
.LFB128:
	.loc 1 630 0
	.cfi_startproc
.LVL76:
	pushl	%ebp
.LCFI324:
	.cfi_def_cfa_offset 8
	.cfi_offset 5, -8
	movl	%esp, %ebp
.LCFI325:
	.cfi_def_cfa_register 5
	subl	$16, %esp
	.loc 1 631 0
	pushl	8(%ebp)
	call	hash
.LVL77:
	addl	$4, %esp
	movl	%eax, -4(%ebp)
.LVL78:
	.loc 1 632 0
	movl	-4(%ebp), %eax
	imull	12(%ebp), %eax
.LVL79:
	movl	%eax, -4(%ebp)
.LVL80:
	.loc 1 633 0
	movl	-4(%ebp), %eax
	movl	hash_Key(,%eax,4), %eax
.LVL81:
	movl	%eax, -8(%ebp)
.LVL82:
	.loc 1 634 0
	cmpl	$0, -8(%ebp)
	je	.L235
	.loc 1 634 0 is_stmt 0 discriminator 1
	pushl	-8(%ebp)
	pushl	8(%ebp)
	call	strcmp
.LVL83:
	addl	$8, %esp
	testl	%eax, %eax
	je	.L235
	.loc 1 635 0 is_stmt 1
	movl	-4(%ebp), %eax
	jmp	.L236
.L235:
	.loc 1 636 0
	movl	$0, %eax
.L236:
	.loc 1 637 0
	leave
.LCFI326:
	.cfi_restore 5
	.cfi_def_cfa 4, 4
	ret
	.cfi_endproc
.LFE128:
	.size	rehash, .-rehash
	.globl	getHashKey
	.type	getHashKey, @function
getHashKey:
.LFB129:
	.loc 1 639 0
	.cfi_startproc
.LVL84:
	pushl	%ebp
.LCFI327:
	.cfi_def_cfa_offset 8
	.cfi_offset 5, -8
	movl	%esp, %ebp
.LCFI328:
	.cfi_def_cfa_register 5
	subl	$16, %esp
	.loc 1 640 0
	movl	$1, -4(%ebp)
.LVL85:
	.loc 1 641 0
	pushl	8(%ebp)
	call	hash
.LVL86:
	addl	$4, %esp
	movl	%eax, -8(%ebp)
.LVL87:
	.loc 1 642 0
	movl	-8(%ebp), %eax
	movl	hash_Key(,%eax,4), %eax
.LVL88:
	movl	%eax, -12(%ebp)
.LVL89:
	.loc 1 643 0
	cmpl	$0, -12(%ebp)
	je	.L238
	.loc 1 644 0
	pushl	-12(%ebp)
	pushl	8(%ebp)
	call	strcmp
.LVL90:
	addl	$8, %esp
	testl	%eax, %eax
	jne	.L239
	.loc 1 645 0
	movl	-8(%ebp), %eax
	jmp	.L240
.L239:
	.loc 1 647 0
	movl	$1, -4(%ebp)
	jmp	.L241
.L243:
	.loc 1 648 0
	pushl	-4(%ebp)
	pushl	8(%ebp)
	call	rehash
.LVL91:
	addl	$8, %esp
	movl	%eax, -8(%ebp)
.LVL92:
	.loc 1 649 0
	cmpl	$0, -8(%ebp)
	je	.L244
	.loc 1 647 0 discriminator 2
	addl	$1, -4(%ebp)
.LVL93:
.L241:
	.loc 1 647 0 is_stmt 0 discriminator 1
	cmpl	$9, -4(%ebp)
	jle	.L243
	jmp	.L238
.LVL94:
.L244:
	.loc 1 650 0 is_stmt 1
	nop
.LVL95:
.L238:
	.loc 1 654 0
	movl	-8(%ebp), %eax
.L240:
	.loc 1 655 0
	leave
.LCFI329:
	.cfi_restore 5
	.cfi_def_cfa 4, 4
	ret
	.cfi_endproc
.LFE129:
	.size	getHashKey, .-getHashKey
	.globl	ht_insert
	.type	ht_insert, @function
ht_insert:
.LFB130:
	.loc 1 657 0
	.cfi_startproc
.LVL96:
	pushl	%ebp
.LCFI330:
	.cfi_def_cfa_offset 8
	.cfi_offset 5, -8
	movl	%esp, %ebp
.LCFI331:
	.cfi_def_cfa_register 5
	subl	$16, %esp
	.loc 1 658 0
	pushl	8(%ebp)
	call	getHashKey
.LVL97:
	addl	$4, %esp
	movl	%eax, -4(%ebp)
.LVL98:
	.loc 1 659 0
	cmpl	$0, -4(%ebp)
	jle	.L247
	.loc 1 660 0
	movl	-4(%ebp), %eax
	movl	8(%ebp), %edx
	movl	%edx, hash_Key(,%eax,4)
	.loc 1 661 0
	movl	-4(%ebp), %eax
	movl	12(%ebp), %edx
	movl	%edx, ht_syscalls(,%eax,4)
.L247:
	.loc 1 663 0
	nop
	leave
.LCFI332:
	.cfi_restore 5
	.cfi_def_cfa 4, 4
	ret
	.cfi_endproc
.LFE130:
	.size	ht_insert, .-ht_insert
	.globl	ht_insertFun
	.type	ht_insertFun, @function
ht_insertFun:
.LFB131:
	.loc 1 665 0
	.cfi_startproc
.LVL99:
	pushl	%ebp
.LCFI333:
	.cfi_def_cfa_offset 8
	.cfi_offset 5, -8
	movl	%esp, %ebp
.LCFI334:
	.cfi_def_cfa_register 5
	subl	$16, %esp
	.loc 1 666 0
	pushl	8(%ebp)
	call	getHashKey
.LVL100:
	addl	$4, %esp
	movl	%eax, -4(%ebp)
.LVL101:
	.loc 1 667 0
	cmpl	$0, -4(%ebp)
	jle	.L250
	.loc 1 668 0
	movl	-4(%ebp), %eax
	movl	12(%ebp), %edx
	movl	%edx, ht_syscalls(,%eax,4)
.L250:
	.loc 1 670 0
	nop
	leave
.LCFI335:
	.cfi_restore 5
	.cfi_def_cfa 4, 4
	ret
	.cfi_endproc
.LFE131:
	.size	ht_insertFun, .-ht_insertFun
	.globl	ht_insertKey
	.type	ht_insertKey, @function
ht_insertKey:
.LFB132:
	.loc 1 672 0
	.cfi_startproc
.LVL102:
	pushl	%ebp
.LCFI336:
	.cfi_def_cfa_offset 8
	.cfi_offset 5, -8
	movl	%esp, %ebp
.LCFI337:
	.cfi_def_cfa_register 5
	subl	$16, %esp
	.loc 1 673 0
	pushl	8(%ebp)
	call	getHashKey
.LVL103:
	addl	$4, %esp
	movl	%eax, -4(%ebp)
.LVL104:
	.loc 1 674 0
	cmpl	$0, -4(%ebp)
	jle	.L253
	.loc 1 675 0
	movl	-4(%ebp), %eax
	movl	8(%ebp), %edx
	movl	%edx, hash_Key(,%eax,4)
.L253:
	.loc 1 677 0
	nop
	leave
.LCFI338:
	.cfi_restore 5
	.cfi_def_cfa 4, 4
	ret
	.cfi_endproc
.LFE132:
	.size	ht_insertKey, .-ht_insertKey
	.section	.rodata
.LC53:
	.string	"Key %s Value %d \n"
	.text
	.globl	printHash
	.type	printHash, @function
printHash:
.LFB133:
	.loc 1 679 0
	.cfi_startproc
	pushl	%ebp
.LCFI339:
	.cfi_def_cfa_offset 8
	.cfi_offset 5, -8
	movl	%esp, %ebp
.LCFI340:
	.cfi_def_cfa_register 5
	subl	$24, %esp
	.loc 1 680 0
	movl	$0, -12(%ebp)
.LVL105:
	.loc 1 681 0
	movl	$0, -12(%ebp)
	jmp	.L255
.L256:
	.loc 1 682 0 discriminator 3
	movl	-12(%ebp), %eax
	movl	ht_syscalls(,%eax,4), %eax
	call	*%eax
.LVL106:
	movl	%eax, %edx
	movl	-12(%ebp), %eax
	movl	hash_Key(,%eax,4), %eax
	subl	$4, %esp
	pushl	%edx
	pushl	%eax
	pushl	$.LC53
	call	cprintf
.LVL107:
	addl	$16, %esp
	.loc 1 681 0 discriminator 3
	addl	$1, -12(%ebp)
.L255:
	.loc 1 681 0 is_stmt 0 discriminator 1
	cmpl	$999, -12(%ebp)
	jle	.L256
	.loc 1 684 0 is_stmt 1
	nop
	leave
.LCFI341:
	.cfi_restore 5
	.cfi_def_cfa 4, 4
.LVL108:
	ret
	.cfi_endproc
.LFE133:
	.size	printHash, .-printHash
	.section	.rodata
.LC54:
	.string	"\n\n\n\n\nAre you Here ??\n\n\n\n\n\n"
.LC55:
	.string	"ht_call1"
.LC56:
	.string	"ht_call2"
.LC57:
	.string	"ht_call3"
.LC58:
	.string	"ht_call4"
.LC59:
	.string	"ht_call5"
.LC60:
	.string	"ht_call6"
.LC61:
	.string	"ht_call7"
.LC62:
	.string	"ht_call8"
.LC63:
	.string	"ht_call9"
.LC64:
	.string	"ht_call10"
.LC65:
	.string	"ht_call11"
.LC66:
	.string	"ht_call12"
.LC67:
	.string	"ht_call13"
.LC68:
	.string	"ht_call14"
.LC69:
	.string	"ht_call15"
.LC70:
	.string	"ht_call16"
.LC71:
	.string	"ht_call17"
.LC72:
	.string	"ht_call18"
.LC73:
	.string	"ht_call19"
.LC74:
	.string	"ht_call20"
.LC75:
	.string	"ht_call21"
.LC76:
	.string	"ht_call22"
.LC77:
	.string	"ht_call23"
.LC78:
	.string	"ht_call24"
.LC79:
	.string	"ht_call25"
.LC80:
	.string	"ht_call26"
.LC81:
	.string	"ht_call27"
.LC82:
	.string	"ht_call28"
.LC83:
	.string	"ht_call29"
.LC84:
	.string	"ht_call30"
.LC85:
	.string	"ht_call31"
.LC86:
	.string	"ht_call32"
.LC87:
	.string	"ht_call33"
.LC88:
	.string	"ht_call34"
.LC89:
	.string	"ht_call35"
.LC90:
	.string	"ht_call36"
.LC91:
	.string	"ht_call37"
.LC92:
	.string	"ht_call38"
.LC93:
	.string	"ht_call39"
.LC94:
	.string	"ht_call40"
.LC95:
	.string	"ht_call41"
.LC96:
	.string	"ht_call42"
.LC97:
	.string	"ht_call43"
.LC98:
	.string	"ht_call44"
.LC99:
	.string	"ht_call45"
.LC100:
	.string	"ht_call46"
.LC101:
	.string	"ht_call47"
.LC102:
	.string	"ht_call48"
.LC103:
	.string	"ht_call49"
.LC104:
	.string	"ht_call50"
	.text
	.globl	sys_ht_init
	.type	sys_ht_init, @function
sys_ht_init:
.LFB134:
	.loc 1 687 0
	.cfi_startproc
	pushl	%ebp
.LCFI342:
	.cfi_def_cfa_offset 8
	.cfi_offset 5, -8
	movl	%esp, %ebp
.LCFI343:
	.cfi_def_cfa_register 5
	subl	$8, %esp
	.loc 1 688 0
	subl	$12, %esp
	pushl	$.LC54
	call	cprintf
.LVL109:
	addl	$16, %esp
	.loc 1 689 0
	subl	$8, %esp
	pushl	$func_ht_call1
	pushl	$.LC55
	call	ht_insert
.LVL110:
	addl	$16, %esp
	.loc 1 690 0
	subl	$8, %esp
	pushl	$func_ht_call2
	pushl	$.LC56
	call	ht_insert
.LVL111:
	addl	$16, %esp
	.loc 1 691 0
	subl	$8, %esp
	pushl	$func_ht_call3
	pushl	$.LC57
	call	ht_insert
.LVL112:
	addl	$16, %esp
	.loc 1 692 0
	subl	$8, %esp
	pushl	$func_ht_call4
	pushl	$.LC58
	call	ht_insert
.LVL113:
	addl	$16, %esp
	.loc 1 693 0
	subl	$8, %esp
	pushl	$func_ht_call5
	pushl	$.LC59
	call	ht_insert
.LVL114:
	addl	$16, %esp
	.loc 1 694 0
	subl	$8, %esp
	pushl	$func_ht_call6
	pushl	$.LC60
	call	ht_insert
.LVL115:
	addl	$16, %esp
	.loc 1 695 0
	subl	$8, %esp
	pushl	$func_ht_call7
	pushl	$.LC61
	call	ht_insert
.LVL116:
	addl	$16, %esp
	.loc 1 696 0
	subl	$8, %esp
	pushl	$func_ht_call8
	pushl	$.LC62
	call	ht_insert
.LVL117:
	addl	$16, %esp
	.loc 1 697 0
	subl	$8, %esp
	pushl	$func_ht_call9
	pushl	$.LC63
	call	ht_insert
.LVL118:
	addl	$16, %esp
	.loc 1 698 0
	subl	$8, %esp
	pushl	$func_ht_call10
	pushl	$.LC64
	call	ht_insert
.LVL119:
	addl	$16, %esp
	.loc 1 699 0
	subl	$8, %esp
	pushl	$func_ht_call11
	pushl	$.LC65
	call	ht_insert
.LVL120:
	addl	$16, %esp
	.loc 1 700 0
	subl	$8, %esp
	pushl	$func_ht_call12
	pushl	$.LC66
	call	ht_insert
.LVL121:
	addl	$16, %esp
	.loc 1 701 0
	subl	$8, %esp
	pushl	$func_ht_call13
	pushl	$.LC67
	call	ht_insert
.LVL122:
	addl	$16, %esp
	.loc 1 702 0
	subl	$8, %esp
	pushl	$func_ht_call14
	pushl	$.LC68
	call	ht_insert
.LVL123:
	addl	$16, %esp
	.loc 1 703 0
	subl	$8, %esp
	pushl	$func_ht_call15
	pushl	$.LC69
	call	ht_insert
.LVL124:
	addl	$16, %esp
	.loc 1 704 0
	subl	$8, %esp
	pushl	$func_ht_call16
	pushl	$.LC70
	call	ht_insert
.LVL125:
	addl	$16, %esp
	.loc 1 705 0
	subl	$8, %esp
	pushl	$func_ht_call17
	pushl	$.LC71
	call	ht_insert
.LVL126:
	addl	$16, %esp
	.loc 1 706 0
	subl	$8, %esp
	pushl	$func_ht_call18
	pushl	$.LC72
	call	ht_insert
.LVL127:
	addl	$16, %esp
	.loc 1 707 0
	subl	$8, %esp
	pushl	$func_ht_call19
	pushl	$.LC73
	call	ht_insert
.LVL128:
	addl	$16, %esp
	.loc 1 708 0
	subl	$8, %esp
	pushl	$func_ht_call20
	pushl	$.LC74
	call	ht_insert
.LVL129:
	addl	$16, %esp
	.loc 1 709 0
	subl	$8, %esp
	pushl	$func_ht_call21
	pushl	$.LC75
	call	ht_insert
.LVL130:
	addl	$16, %esp
	.loc 1 710 0
	subl	$8, %esp
	pushl	$func_ht_call22
	pushl	$.LC76
	call	ht_insert
.LVL131:
	addl	$16, %esp
	.loc 1 711 0
	subl	$8, %esp
	pushl	$func_ht_call23
	pushl	$.LC77
	call	ht_insert
.LVL132:
	addl	$16, %esp
	.loc 1 712 0
	subl	$8, %esp
	pushl	$func_ht_call24
	pushl	$.LC78
	call	ht_insert
.LVL133:
	addl	$16, %esp
	.loc 1 713 0
	subl	$8, %esp
	pushl	$func_ht_call25
	pushl	$.LC79
	call	ht_insert
.LVL134:
	addl	$16, %esp
	.loc 1 714 0
	subl	$8, %esp
	pushl	$func_ht_call26
	pushl	$.LC80
	call	ht_insert
.LVL135:
	addl	$16, %esp
	.loc 1 715 0
	subl	$8, %esp
	pushl	$func_ht_call27
	pushl	$.LC81
	call	ht_insert
.LVL136:
	addl	$16, %esp
	.loc 1 716 0
	subl	$8, %esp
	pushl	$func_ht_call28
	pushl	$.LC82
	call	ht_insert
.LVL137:
	addl	$16, %esp
	.loc 1 717 0
	subl	$8, %esp
	pushl	$func_ht_call29
	pushl	$.LC83
	call	ht_insert
.LVL138:
	addl	$16, %esp
	.loc 1 718 0
	subl	$8, %esp
	pushl	$func_ht_call30
	pushl	$.LC84
	call	ht_insert
.LVL139:
	addl	$16, %esp
	.loc 1 719 0
	subl	$8, %esp
	pushl	$func_ht_call31
	pushl	$.LC85
	call	ht_insert
.LVL140:
	addl	$16, %esp
	.loc 1 720 0
	subl	$8, %esp
	pushl	$func_ht_call32
	pushl	$.LC86
	call	ht_insert
.LVL141:
	addl	$16, %esp
	.loc 1 721 0
	subl	$8, %esp
	pushl	$func_ht_call33
	pushl	$.LC87
	call	ht_insert
.LVL142:
	addl	$16, %esp
	.loc 1 722 0
	subl	$8, %esp
	pushl	$func_ht_call34
	pushl	$.LC88
	call	ht_insert
.LVL143:
	addl	$16, %esp
	.loc 1 723 0
	subl	$8, %esp
	pushl	$func_ht_call35
	pushl	$.LC89
	call	ht_insert
.LVL144:
	addl	$16, %esp
	.loc 1 724 0
	subl	$8, %esp
	pushl	$func_ht_call36
	pushl	$.LC90
	call	ht_insert
.LVL145:
	addl	$16, %esp
	.loc 1 725 0
	subl	$8, %esp
	pushl	$func_ht_call37
	pushl	$.LC91
	call	ht_insert
.LVL146:
	addl	$16, %esp
	.loc 1 726 0
	subl	$8, %esp
	pushl	$func_ht_call38
	pushl	$.LC92
	call	ht_insert
.LVL147:
	addl	$16, %esp
	.loc 1 727 0
	subl	$8, %esp
	pushl	$func_ht_call39
	pushl	$.LC93
	call	ht_insert
.LVL148:
	addl	$16, %esp
	.loc 1 728 0
	subl	$8, %esp
	pushl	$func_ht_call40
	pushl	$.LC94
	call	ht_insert
.LVL149:
	addl	$16, %esp
	.loc 1 729 0
	subl	$8, %esp
	pushl	$func_ht_call41
	pushl	$.LC95
	call	ht_insert
.LVL150:
	addl	$16, %esp
	.loc 1 730 0
	subl	$8, %esp
	pushl	$func_ht_call42
	pushl	$.LC96
	call	ht_insert
.LVL151:
	addl	$16, %esp
	.loc 1 731 0
	subl	$8, %esp
	pushl	$func_ht_call43
	pushl	$.LC97
	call	ht_insert
.LVL152:
	addl	$16, %esp
	.loc 1 732 0
	subl	$8, %esp
	pushl	$func_ht_call44
	pushl	$.LC98
	call	ht_insert
.LVL153:
	addl	$16, %esp
	.loc 1 733 0
	subl	$8, %esp
	pushl	$func_ht_call45
	pushl	$.LC99
	call	ht_insert
.LVL154:
	addl	$16, %esp
	.loc 1 734 0
	subl	$8, %esp
	pushl	$func_ht_call46
	pushl	$.LC100
	call	ht_insert
.LVL155:
	addl	$16, %esp
	.loc 1 735 0
	subl	$8, %esp
	pushl	$func_ht_call47
	pushl	$.LC101
	call	ht_insert
.LVL156:
	addl	$16, %esp
	.loc 1 736 0
	subl	$8, %esp
	pushl	$func_ht_call48
	pushl	$.LC102
	call	ht_insert
.LVL157:
	addl	$16, %esp
	.loc 1 737 0
	subl	$8, %esp
	pushl	$func_ht_call49
	pushl	$.LC103
	call	ht_insert
.LVL158:
	addl	$16, %esp
	.loc 1 738 0
	subl	$8, %esp
	pushl	$func_ht_call50
	pushl	$.LC104
	call	ht_insert
.LVL159:
	addl	$16, %esp
	.loc 1 739 0
	movl	$1, %eax
	.loc 1 740 0
	leave
.LCFI344:
	.cfi_restore 5
	.cfi_def_cfa 4, 4
	ret
	.cfi_endproc
.LFE134:
	.size	sys_ht_init, .-sys_ht_init
	.globl	ht_syscall
	.type	ht_syscall, @function
ht_syscall:
.LFB135:
	.loc 1 745 0
	.cfi_startproc
	pushl	%ebp
.LCFI345:
	.cfi_def_cfa_offset 8
	.cfi_offset 5, -8
	movl	%esp, %ebp
.LCFI346:
	.cfi_def_cfa_register 5
	pushl	%ebx
	subl	$20, %esp
	.cfi_offset 3, -12
	.loc 1 746 0
	movl	%gs:4, %eax
	movl	24(%eax), %eax
	movl	28(%eax), %eax
	movl	%eax, -12(%ebp)
.LVL160:
	.loc 1 747 0
	cmpl	$0, -12(%ebp)
	je	.L260
	.loc 1 748 0
	movl	%gs:4, %eax
.LVL161:
	movl	24(%eax), %ebx
	pushl	-12(%ebp)
.LVL162:
	call	getHashKey
.LVL163:
	addl	$4, %esp
	movl	ht_syscalls(,%eax,4), %eax
	call	*%eax
.LVL164:
	movl	%eax, 28(%ebx)
	.loc 1 752 0
	jmp	.L262
.LVL165:
.L260:
	.loc 1 750 0
	movl	%gs:4, %eax
.LVL166:
	movl	24(%eax), %eax
	movl	$-1, 28(%eax)
.LVL167:
.L262:
	.loc 1 752 0
	nop
	movl	-4(%ebp), %ebx
	leave
.LCFI347:
	.cfi_restore 5
	.cfi_restore 3
	.cfi_def_cfa 4, 4
.LVL168:
	ret
	.cfi_endproc
.LFE135:
	.size	ht_syscall, .-ht_syscall
.Letext0:
	.file 2 "types.h"
	.file 3 "proc.h"
	.file 4 "x86.h"
	.file 5 "date.h"
	.file 6 "defs.h"
	.section	.note.GNU-stack,"",@progbits
