	.file	"forktest.c"
	.text
.Ltext0:
	.globl	printf
	.type	printf, @function
printf:
.LFB0:
	.file 1 "forktest.c"
	.loc 1 12 0
	.cfi_startproc
.LVL0:
	pushl	%ebp
.LCFI0:
	.cfi_def_cfa_offset 8
	.cfi_offset 5, -8
	movl	%esp, %ebp
.LCFI1:
	.cfi_def_cfa_register 5
	subl	$8, %esp
	.loc 1 13 0
	subl	$12, %esp
	pushl	12(%ebp)
	call	strlen
.LVL1:
	addl	$16, %esp
	subl	$4, %esp
	pushl	%eax
	pushl	12(%ebp)
	pushl	8(%ebp)
	call	write
.LVL2:
	addl	$16, %esp
	.loc 1 14 0
	nop
	leave
.LCFI2:
	.cfi_restore 5
	.cfi_def_cfa 4, 4
	ret
	.cfi_endproc
.LFE0:
	.size	printf, .-printf
	.section	.rodata
.LC0:
	.string	"fork test\n"
	.align 4
.LC1:
	.string	"fork claimed to work N times!\n"
.LC2:
	.string	"wait stopped early\n"
.LC3:
	.string	"wait got too many\n"
.LC4:
	.string	"fork test OK\n"
	.text
	.globl	forktest
	.type	forktest, @function
forktest:
.LFB1:
	.loc 1 18 0
	.cfi_startproc
	pushl	%ebp
.LCFI3:
	.cfi_def_cfa_offset 8
	.cfi_offset 5, -8
	movl	%esp, %ebp
.LCFI4:
	.cfi_def_cfa_register 5
	subl	$24, %esp
	.loc 1 21 0
	subl	$8, %esp
	pushl	$.LC0
	pushl	$1
	call	printf
.LVL3:
	addl	$16, %esp
	.loc 1 23 0
	movl	$0, -12(%ebp)
.LVL4:
	jmp	.L3
.L7:
	.loc 1 24 0
	call	fork
.LVL5:
	movl	%eax, -16(%ebp)
.LVL6:
	.loc 1 25 0
	cmpl	$0, -16(%ebp)
	js	.L13
	.loc 1 27 0
	cmpl	$0, -16(%ebp)
	jne	.L6
	.loc 1 28 0
	call	exit
.LVL7:
.L6:
	.loc 1 23 0 discriminator 2
	addl	$1, -12(%ebp)
.LVL8:
.L3:
	.loc 1 23 0 is_stmt 0 discriminator 1
	cmpl	$999, -12(%ebp)
	jle	.L7
	jmp	.L5
.LVL9:
.L13:
	.loc 1 26 0 is_stmt 1
	nop
.LVL10:
.L5:
	.loc 1 31 0
	cmpl	$1000, -12(%ebp)
	jne	.L9
	.loc 1 32 0
	subl	$4, %esp
	pushl	$1000
	pushl	$.LC1
	pushl	$1
	call	printf
.LVL11:
	addl	$16, %esp
	.loc 1 33 0
	call	exit
.LVL12:
.L11:
	.loc 1 37 0
	call	wait
.LVL13:
	testl	%eax, %eax
	jns	.L10
	.loc 1 38 0
	subl	$8, %esp
	pushl	$.LC2
	pushl	$1
	call	printf
.LVL14:
	addl	$16, %esp
	.loc 1 39 0
	call	exit
.LVL15:
.L10:
	.loc 1 36 0
	subl	$1, -12(%ebp)
.L9:
	.loc 1 36 0 is_stmt 0 discriminator 1
	cmpl	$0, -12(%ebp)
	jg	.L11
	.loc 1 43 0 is_stmt 1
	call	wait
.LVL16:
	cmpl	$-1, %eax
	je	.L12
	.loc 1 44 0
	subl	$8, %esp
	pushl	$.LC3
	pushl	$1
	call	printf
.LVL17:
	addl	$16, %esp
	.loc 1 45 0
	call	exit
.LVL18:
.L12:
	.loc 1 48 0
	subl	$8, %esp
	pushl	$.LC4
	pushl	$1
	call	printf
.LVL19:
	addl	$16, %esp
	.loc 1 49 0
	nop
	leave
.LCFI5:
	.cfi_restore 5
	.cfi_def_cfa 4, 4
.LVL20:
	ret
	.cfi_endproc
.LFE1:
	.size	forktest, .-forktest
	.globl	main
	.type	main, @function
main:
.LFB2:
	.loc 1 53 0
	.cfi_startproc
	leal	4(%esp), %ecx
.LCFI6:
	.cfi_def_cfa 1, 0
	andl	$-16, %esp
	pushl	-4(%ecx)
	pushl	%ebp
	.cfi_escape 0x10,0x5,0x2,0x75,0
	movl	%esp, %ebp
	pushl	%ecx
.LCFI7:
	.cfi_escape 0xf,0x3,0x75,0x7c,0x6
	subl	$4, %esp
	.loc 1 54 0
	call	forktest
.LVL21:
	.loc 1 55 0
	call	exit
.LVL22:
	.cfi_endproc
.LFE2:
	.size	main, .-main
.Letext0:
	.file 2 "user.h"
	.section	.note.GNU-stack,"",@progbits
