	.file	"ls.c"
	.text
.Ltext0:
	.globl	fmtname
	.type	fmtname, @function
fmtname:
.LFB0:
	.file 1 "ls.c"
	.loc 1 8 0
	.cfi_startproc
.LVL0:
	pushl	%ebp
.LCFI0:
	.cfi_def_cfa_offset 8
	.cfi_offset 5, -8
	movl	%esp, %ebp
.LCFI1:
	.cfi_def_cfa_register 5
	pushl	%ebx
	subl	$20, %esp
	.cfi_offset 3, -12
	.loc 1 13 0
	subl	$12, %esp
	pushl	8(%ebp)
	call	strlen
.LVL1:
	addl	$16, %esp
	movl	%eax, %edx
	movl	8(%ebp), %eax
	addl	%edx, %eax
	movl	%eax, -12(%ebp)
.LVL2:
	jmp	.L2
.LVL3:
.L4:
	.loc 1 13 0 is_stmt 0 discriminator 4
	subl	$1, -12(%ebp)
.LVL4:
.L2:
	.loc 1 13 0 discriminator 1
	movl	-12(%ebp), %eax
	cmpl	8(%ebp), %eax
	jb	.L3
	.loc 1 13 0 discriminator 3
	movl	-12(%ebp), %eax
	movzbl	(%eax), %eax
	cmpb	$47, %al
	jne	.L4
.L3:
	.loc 1 15 0 is_stmt 1
	addl	$1, -12(%ebp)
.LVL5:
	.loc 1 18 0
	subl	$12, %esp
	pushl	-12(%ebp)
	call	strlen
.LVL6:
	addl	$16, %esp
	cmpl	$13, %eax
	jbe	.L5
	.loc 1 19 0
	movl	-12(%ebp), %eax
	jmp	.L6
.L5:
	.loc 1 20 0
	subl	$12, %esp
	pushl	-12(%ebp)
	call	strlen
.LVL7:
	addl	$16, %esp
	subl	$4, %esp
	pushl	%eax
	pushl	-12(%ebp)
	pushl	$buf.1324
	call	memmove
.LVL8:
	addl	$16, %esp
	.loc 1 21 0
	subl	$12, %esp
	pushl	-12(%ebp)
	call	strlen
.LVL9:
	addl	$16, %esp
	movl	$14, %edx
	movl	%edx, %ebx
	subl	%eax, %ebx
	subl	$12, %esp
	pushl	-12(%ebp)
	call	strlen
.LVL10:
	addl	$16, %esp
	addl	$buf.1324, %eax
	subl	$4, %esp
	pushl	%ebx
	pushl	$32
	pushl	%eax
	call	memset
.LVL11:
	addl	$16, %esp
	.loc 1 22 0
	movl	$buf.1324, %eax
.L6:
	.loc 1 23 0
	movl	-4(%ebp), %ebx
	leave
.LCFI2:
	.cfi_restore 5
	.cfi_restore 3
	.cfi_def_cfa 4, 4
	ret
	.cfi_endproc
.LFE0:
	.size	fmtname, .-fmtname
	.section	.rodata
.LC0:
	.string	"ls: cannot open %s\n"
.LC1:
	.string	"ls: cannot stat %s\n"
.LC2:
	.string	"%s %d %d %d\n"
.LC3:
	.string	"ls: path too long\n"
	.text
	.globl	ls
	.type	ls, @function
ls:
.LFB1:
	.loc 1 27 0
	.cfi_startproc
.LVL12:
	pushl	%ebp
.LCFI3:
	.cfi_def_cfa_offset 8
	.cfi_offset 5, -8
	movl	%esp, %ebp
.LCFI4:
	.cfi_def_cfa_register 5
	pushl	%edi
	pushl	%esi
	pushl	%ebx
	subl	$572, %esp
	.cfi_offset 7, -12
	.cfi_offset 6, -16
	.cfi_offset 3, -20
	.loc 1 33 0
	subl	$8, %esp
	pushl	$0
	pushl	8(%ebp)
	call	open
.LVL13:
	addl	$16, %esp
	movl	%eax, -28(%ebp)
.LVL14:
	cmpl	$0, -28(%ebp)
	jns	.L8
	.loc 1 34 0
	subl	$4, %esp
	pushl	8(%ebp)
	pushl	$.LC0
	pushl	$2
	call	printf
.LVL15:
	addl	$16, %esp
	.loc 1 35 0
	jmp	.L7
.LVL16:
.L8:
	.loc 1 38 0
	subl	$8, %esp
	leal	-580(%ebp), %eax
.LVL17:
	pushl	%eax
	pushl	-28(%ebp)
	call	fstat
.LVL18:
	addl	$16, %esp
	testl	%eax, %eax
	jns	.L10
	.loc 1 39 0
	subl	$4, %esp
	pushl	8(%ebp)
	pushl	$.LC1
	pushl	$2
	call	printf
.LVL19:
	addl	$16, %esp
	.loc 1 40 0
	subl	$12, %esp
	pushl	-28(%ebp)
	call	close
.LVL20:
	addl	$16, %esp
	.loc 1 41 0
	jmp	.L7
.L10:
	.loc 1 44 0
	movzwl	-580(%ebp), %eax
	cwtl
	cmpl	$1, %eax
	je	.L12
	cmpl	$2, %eax
	jne	.L11
	.loc 1 46 0
	movl	-564(%ebp), %edi
	movl	-572(%ebp), %esi
	movzwl	-580(%ebp), %eax
	movswl	%ax, %ebx
	subl	$12, %esp
	pushl	8(%ebp)
	call	fmtname
.LVL21:
	addl	$16, %esp
	subl	$8, %esp
	pushl	%edi
	pushl	%esi
	pushl	%ebx
	pushl	%eax
	pushl	$.LC2
	pushl	$1
	call	printf
.LVL22:
	addl	$32, %esp
	.loc 1 47 0
	jmp	.L11
.L12:
	.loc 1 50 0
	subl	$12, %esp
	pushl	8(%ebp)
	call	strlen
.LVL23:
	addl	$16, %esp
	addl	$16, %eax
	cmpl	$512, %eax
	jbe	.L14
	.loc 1 51 0
	subl	$8, %esp
	pushl	$.LC3
	pushl	$1
	call	printf
.LVL24:
	addl	$16, %esp
	.loc 1 52 0
	jmp	.L11
.L14:
	.loc 1 54 0
	subl	$8, %esp
	pushl	8(%ebp)
	leal	-544(%ebp), %eax
	pushl	%eax
	call	strcpy
.LVL25:
	addl	$16, %esp
	.loc 1 55 0
	subl	$12, %esp
	leal	-544(%ebp), %eax
	pushl	%eax
	call	strlen
.LVL26:
	addl	$16, %esp
	movl	%eax, %edx
	leal	-544(%ebp), %eax
	addl	%edx, %eax
	movl	%eax, -32(%ebp)
.LVL27:
	.loc 1 56 0
	movl	-32(%ebp), %eax
	leal	1(%eax), %edx
	movl	%edx, -32(%ebp)
.LVL28:
	movb	$47, (%eax)
	.loc 1 57 0
	jmp	.L15
.LVL29:
.L18:
	.loc 1 58 0
	movzwl	-560(%ebp), %eax
	testw	%ax, %ax
	jne	.L16
	.loc 1 59 0
	jmp	.L15
.L16:
	.loc 1 60 0
	subl	$4, %esp
	pushl	$14
	leal	-560(%ebp), %eax
	addl	$2, %eax
	pushl	%eax
	pushl	-32(%ebp)
	call	memmove
.LVL30:
	addl	$16, %esp
	.loc 1 61 0
	movl	-32(%ebp), %eax
	addl	$14, %eax
	movb	$0, (%eax)
	.loc 1 62 0
	subl	$8, %esp
	leal	-580(%ebp), %eax
	pushl	%eax
	leal	-544(%ebp), %eax
	pushl	%eax
	call	stat
.LVL31:
	addl	$16, %esp
	testl	%eax, %eax
	jns	.L17
	.loc 1 63 0
	subl	$4, %esp
	leal	-544(%ebp), %eax
	pushl	%eax
	pushl	$.LC1
	pushl	$1
	call	printf
.LVL32:
	addl	$16, %esp
	.loc 1 64 0
	jmp	.L15
.L17:
	.loc 1 66 0
	movl	-564(%ebp), %edi
	movl	-572(%ebp), %esi
	movzwl	-580(%ebp), %eax
	movswl	%ax, %ebx
	subl	$12, %esp
	leal	-544(%ebp), %eax
	pushl	%eax
	call	fmtname
.LVL33:
	addl	$16, %esp
	subl	$8, %esp
	pushl	%edi
	pushl	%esi
	pushl	%ebx
	pushl	%eax
	pushl	$.LC2
	pushl	$1
	call	printf
.LVL34:
	addl	$32, %esp
.L15:
	.loc 1 57 0
	subl	$4, %esp
	pushl	$16
	leal	-560(%ebp), %eax
	pushl	%eax
	pushl	-28(%ebp)
	call	read
.LVL35:
	addl	$16, %esp
	cmpl	$16, %eax
	je	.L18
	.loc 1 68 0
	nop
.LVL36:
.L11:
	.loc 1 70 0 discriminator 1
	subl	$12, %esp
	pushl	-28(%ebp)
	call	close
.LVL37:
	addl	$16, %esp
.L7:
	.loc 1 71 0
	leal	-12(%ebp), %esp
	popl	%ebx
	.cfi_restore 3
	popl	%esi
	.cfi_restore 6
	popl	%edi
	.cfi_restore 7
	popl	%ebp
.LCFI5:
	.cfi_restore 5
	.cfi_def_cfa 4, 4
	ret
	.cfi_endproc
.LFE1:
	.size	ls, .-ls
	.section	.rodata
.LC4:
	.string	"."
	.text
	.globl	main
	.type	main, @function
main:
.LFB2:
	.loc 1 75 0
	.cfi_startproc
.LVL38:
	leal	4(%esp), %ecx
.LCFI6:
	.cfi_def_cfa 1, 0
	andl	$-16, %esp
	pushl	-4(%ecx)
	pushl	%ebp
	.cfi_escape 0x10,0x5,0x2,0x75,0
	movl	%esp, %ebp
	pushl	%ebx
	pushl	%ecx
.LCFI7:
	.cfi_escape 0xf,0x3,0x75,0x78,0x6
	.cfi_escape 0x10,0x3,0x2,0x75,0x7c
	subl	$16, %esp
	movl	%ecx, %ebx
	.loc 1 78 0
	cmpl	$1, (%ebx)
	jg	.L21
	.loc 1 79 0
	subl	$12, %esp
	pushl	$.LC4
	call	ls
.LVL39:
	addl	$16, %esp
	.loc 1 80 0
	call	exit
.LVL40:
.L21:
	.loc 1 82 0
	movl	$1, -12(%ebp)
.LVL41:
	jmp	.L22
.LVL42:
.L23:
	.loc 1 83 0 discriminator 3
	movl	-12(%ebp), %eax
.LVL43:
	leal	0(,%eax,4), %edx
	movl	4(%ebx), %eax
	addl	%edx, %eax
	movl	(%eax), %eax
	subl	$12, %esp
	pushl	%eax
.LVL44:
	call	ls
.LVL45:
	addl	$16, %esp
	.loc 1 82 0 discriminator 3
	addl	$1, -12(%ebp)
.LVL46:
.L22:
	.loc 1 82 0 is_stmt 0 discriminator 1
	movl	-12(%ebp), %eax
	cmpl	(%ebx), %eax
	jl	.L23
	.loc 1 84 0 is_stmt 1
	call	exit
.LVL47:
	.cfi_endproc
.LFE2:
	.size	main, .-main
	.local	buf.1324
	.comm	buf.1324,15,4
.Letext0:
	.file 2 "stat.h"
	.file 3 "fs.h"
	.file 4 "user.h"
	.file 5 "types.h"
	.section	.note.GNU-stack,"",@progbits
