	.file	"sysfile.c"
	.text
.Ltext0:
	.type	argfd, @function
argfd:
.LFB0:
	.file 1 "sysfile.c"
	.loc 1 21 0
	.cfi_startproc
.LVL0:
	pushl	%ebp
.LCFI0:
	.cfi_def_cfa_offset 8
	.cfi_offset 5, -8
	movl	%esp, %ebp
.LCFI1:
	.cfi_def_cfa_register 5
	subl	$24, %esp
	.loc 1 25 0
	subl	$8, %esp
	leal	-16(%ebp), %eax
	pushl	%eax
	pushl	8(%ebp)
	call	argint
.LVL1:
	addl	$16, %esp
	testl	%eax, %eax
	jns	.L2
	.loc 1 26 0
	movl	$-1, %eax
	jmp	.L8
.L2:
	.loc 1 27 0
	movl	-16(%ebp), %eax
	testl	%eax, %eax
	js	.L4
	.loc 1 27 0 is_stmt 0 discriminator 1
	movl	-16(%ebp), %eax
	cmpl	$15, %eax
	jg	.L4
	.loc 1 27 0 discriminator 2
	movl	%gs:4, %eax
	movl	-16(%ebp), %edx
	addl	$8, %edx
	movl	8(%eax,%edx,4), %eax
	movl	%eax, -12(%ebp)
.LVL2:
	cmpl	$0, -12(%ebp)
	jne	.L5
.LVL3:
.L4:
	.loc 1 28 0 is_stmt 1
	movl	$-1, %eax
	jmp	.L8
.LVL4:
.L5:
	.loc 1 29 0
	cmpl	$0, 12(%ebp)
	je	.L6
	.loc 1 30 0
	movl	-16(%ebp), %edx
	movl	12(%ebp), %eax
.LVL5:
	movl	%edx, (%eax)
.LVL6:
.L6:
	.loc 1 31 0
	cmpl	$0, 16(%ebp)
	je	.L7
	.loc 1 32 0
	movl	16(%ebp), %eax
	movl	-12(%ebp), %edx
	movl	%edx, (%eax)
.L7:
	.loc 1 33 0
	movl	$0, %eax
.LVL7:
.L8:
	.loc 1 34 0 discriminator 1
	leave
.LCFI2:
	.cfi_restore 5
	.cfi_def_cfa 4, 4
	ret
	.cfi_endproc
.LFE0:
	.size	argfd, .-argfd
	.type	fdalloc, @function
fdalloc:
.LFB1:
	.loc 1 40 0
	.cfi_startproc
.LVL8:
	pushl	%ebp
.LCFI3:
	.cfi_def_cfa_offset 8
	.cfi_offset 5, -8
	movl	%esp, %ebp
.LCFI4:
	.cfi_def_cfa_register 5
	subl	$16, %esp
	.loc 1 43 0
	movl	$0, -4(%ebp)
.LVL9:
	jmp	.L10
.L13:
	.loc 1 44 0
	movl	%gs:4, %eax
	movl	-4(%ebp), %edx
	addl	$8, %edx
	movl	8(%eax,%edx,4), %eax
	testl	%eax, %eax
	jne	.L11
	.loc 1 45 0
	movl	%gs:4, %eax
	movl	-4(%ebp), %edx
	leal	8(%edx), %ecx
	movl	8(%ebp), %edx
	movl	%edx, 8(%eax,%ecx,4)
	.loc 1 46 0
	movl	-4(%ebp), %eax
	jmp	.L12
.L11:
	.loc 1 43 0 discriminator 2
	addl	$1, -4(%ebp)
.LVL10:
.L10:
	.loc 1 43 0 is_stmt 0 discriminator 1
	cmpl	$15, -4(%ebp)
	jle	.L13
	.loc 1 49 0 is_stmt 1
	movl	$-1, %eax
.L12:
	.loc 1 50 0
	leave
.LCFI5:
	.cfi_restore 5
	.cfi_def_cfa 4, 4
	ret
	.cfi_endproc
.LFE1:
	.size	fdalloc, .-fdalloc
	.globl	sys_dup
	.type	sys_dup, @function
sys_dup:
.LFB2:
	.loc 1 54 0
	.cfi_startproc
	pushl	%ebp
.LCFI6:
	.cfi_def_cfa_offset 8
	.cfi_offset 5, -8
	movl	%esp, %ebp
.LCFI7:
	.cfi_def_cfa_register 5
	subl	$24, %esp
	.loc 1 58 0
	subl	$4, %esp
	leal	-16(%ebp), %eax
	pushl	%eax
	pushl	$0
	pushl	$0
	call	argfd
.LVL11:
	addl	$16, %esp
	testl	%eax, %eax
	jns	.L15
	.loc 1 59 0
	movl	$-1, %eax
	jmp	.L18
.L15:
	.loc 1 60 0
	movl	-16(%ebp), %eax
	subl	$12, %esp
	pushl	%eax
	call	fdalloc
.LVL12:
	addl	$16, %esp
	movl	%eax, -12(%ebp)
.LVL13:
	cmpl	$0, -12(%ebp)
	jns	.L17
	.loc 1 61 0
	movl	$-1, %eax
.LVL14:
	jmp	.L18
.LVL15:
.L17:
	.loc 1 62 0
	movl	-16(%ebp), %eax
.LVL16:
	subl	$12, %esp
	pushl	%eax
	call	filedup
.LVL17:
	addl	$16, %esp
	.loc 1 63 0
	movl	-12(%ebp), %eax
.LVL18:
.L18:
	.loc 1 64 0 discriminator 1
	leave
.LCFI8:
	.cfi_restore 5
	.cfi_def_cfa 4, 4
	ret
	.cfi_endproc
.LFE2:
	.size	sys_dup, .-sys_dup
	.globl	sys_read
	.type	sys_read, @function
sys_read:
.LFB3:
	.loc 1 68 0
	.cfi_startproc
	pushl	%ebp
.LCFI9:
	.cfi_def_cfa_offset 8
	.cfi_offset 5, -8
	movl	%esp, %ebp
.LCFI10:
	.cfi_def_cfa_register 5
	subl	$24, %esp
	.loc 1 73 0
	subl	$4, %esp
	leal	-12(%ebp), %eax
	pushl	%eax
	pushl	$0
	pushl	$0
	call	argfd
.LVL19:
	addl	$16, %esp
	testl	%eax, %eax
	js	.L20
	.loc 1 73 0 is_stmt 0 discriminator 1
	subl	$8, %esp
	leal	-16(%ebp), %eax
	pushl	%eax
	pushl	$2
	call	argint
.LVL20:
	addl	$16, %esp
	testl	%eax, %eax
	js	.L20
	.loc 1 73 0 discriminator 2
	movl	-16(%ebp), %eax
	subl	$4, %esp
	pushl	%eax
	leal	-20(%ebp), %eax
	pushl	%eax
	pushl	$1
	call	argptr
.LVL21:
	addl	$16, %esp
	testl	%eax, %eax
	jns	.L21
.L20:
	.loc 1 74 0 is_stmt 1
	movl	$-1, %eax
	jmp	.L23
.L21:
	.loc 1 75 0
	movl	-16(%ebp), %ecx
	movl	-20(%ebp), %edx
	movl	-12(%ebp), %eax
	subl	$4, %esp
	pushl	%ecx
	pushl	%edx
	pushl	%eax
	call	fileread
.LVL22:
	addl	$16, %esp
.L23:
	.loc 1 76 0 discriminator 1
	leave
.LCFI11:
	.cfi_restore 5
	.cfi_def_cfa 4, 4
	ret
	.cfi_endproc
.LFE3:
	.size	sys_read, .-sys_read
	.globl	sys_write
	.type	sys_write, @function
sys_write:
.LFB4:
	.loc 1 80 0
	.cfi_startproc
	pushl	%ebp
.LCFI12:
	.cfi_def_cfa_offset 8
	.cfi_offset 5, -8
	movl	%esp, %ebp
.LCFI13:
	.cfi_def_cfa_register 5
	subl	$24, %esp
	.loc 1 85 0
	subl	$4, %esp
	leal	-12(%ebp), %eax
	pushl	%eax
	pushl	$0
	pushl	$0
	call	argfd
.LVL23:
	addl	$16, %esp
	testl	%eax, %eax
	js	.L25
	.loc 1 85 0 is_stmt 0 discriminator 1
	subl	$8, %esp
	leal	-16(%ebp), %eax
	pushl	%eax
	pushl	$2
	call	argint
.LVL24:
	addl	$16, %esp
	testl	%eax, %eax
	js	.L25
	.loc 1 85 0 discriminator 2
	movl	-16(%ebp), %eax
	subl	$4, %esp
	pushl	%eax
	leal	-20(%ebp), %eax
	pushl	%eax
	pushl	$1
	call	argptr
.LVL25:
	addl	$16, %esp
	testl	%eax, %eax
	jns	.L26
.L25:
	.loc 1 86 0 is_stmt 1
	movl	$-1, %eax
	jmp	.L28
.L26:
	.loc 1 87 0
	movl	-16(%ebp), %ecx
	movl	-20(%ebp), %edx
	movl	-12(%ebp), %eax
	subl	$4, %esp
	pushl	%ecx
	pushl	%edx
	pushl	%eax
	call	filewrite
.LVL26:
	addl	$16, %esp
.L28:
	.loc 1 88 0 discriminator 1
	leave
.LCFI14:
	.cfi_restore 5
	.cfi_def_cfa 4, 4
	ret
	.cfi_endproc
.LFE4:
	.size	sys_write, .-sys_write
	.globl	sys_close
	.type	sys_close, @function
sys_close:
.LFB5:
	.loc 1 92 0
	.cfi_startproc
	pushl	%ebp
.LCFI15:
	.cfi_def_cfa_offset 8
	.cfi_offset 5, -8
	movl	%esp, %ebp
.LCFI16:
	.cfi_def_cfa_register 5
	subl	$24, %esp
	.loc 1 96 0
	subl	$4, %esp
	leal	-16(%ebp), %eax
	pushl	%eax
	leal	-12(%ebp), %eax
	pushl	%eax
	pushl	$0
	call	argfd
.LVL27:
	addl	$16, %esp
	testl	%eax, %eax
	jns	.L30
	.loc 1 97 0
	movl	$-1, %eax
	jmp	.L32
.L30:
	.loc 1 98 0
	movl	%gs:4, %eax
	movl	-12(%ebp), %edx
	addl	$8, %edx
	movl	$0, 8(%eax,%edx,4)
	.loc 1 99 0
	movl	-16(%ebp), %eax
	subl	$12, %esp
	pushl	%eax
	call	fileclose
.LVL28:
	addl	$16, %esp
	.loc 1 100 0
	movl	$0, %eax
.L32:
	.loc 1 101 0 discriminator 1
	leave
.LCFI17:
	.cfi_restore 5
	.cfi_def_cfa 4, 4
	ret
	.cfi_endproc
.LFE5:
	.size	sys_close, .-sys_close
	.globl	sys_fstat
	.type	sys_fstat, @function
sys_fstat:
.LFB6:
	.loc 1 105 0
	.cfi_startproc
	pushl	%ebp
.LCFI18:
	.cfi_def_cfa_offset 8
	.cfi_offset 5, -8
	movl	%esp, %ebp
.LCFI19:
	.cfi_def_cfa_register 5
	subl	$24, %esp
	.loc 1 109 0
	subl	$4, %esp
	leal	-12(%ebp), %eax
	pushl	%eax
	pushl	$0
	pushl	$0
	call	argfd
.LVL29:
	addl	$16, %esp
	testl	%eax, %eax
	js	.L34
	.loc 1 109 0 is_stmt 0 discriminator 1
	subl	$4, %esp
	pushl	$20
	leal	-16(%ebp), %eax
	pushl	%eax
	pushl	$1
	call	argptr
.LVL30:
	addl	$16, %esp
	testl	%eax, %eax
	jns	.L35
.L34:
	.loc 1 110 0 is_stmt 1
	movl	$-1, %eax
	jmp	.L37
.L35:
	.loc 1 111 0
	movl	-16(%ebp), %edx
	movl	-12(%ebp), %eax
	subl	$8, %esp
	pushl	%edx
	pushl	%eax
	call	filestat
.LVL31:
	addl	$16, %esp
.L37:
	.loc 1 112 0 discriminator 1
	leave
.LCFI20:
	.cfi_restore 5
	.cfi_def_cfa 4, 4
	ret
	.cfi_endproc
.LFE6:
	.size	sys_fstat, .-sys_fstat
	.globl	sys_link
	.type	sys_link, @function
sys_link:
.LFB7:
	.loc 1 117 0
	.cfi_startproc
	pushl	%ebp
.LCFI21:
	.cfi_def_cfa_offset 8
	.cfi_offset 5, -8
	movl	%esp, %ebp
.LCFI22:
	.cfi_def_cfa_register 5
	subl	$40, %esp
	.loc 1 121 0
	subl	$8, %esp
	leal	-40(%ebp), %eax
	pushl	%eax
	pushl	$0
	call	argstr
.LVL32:
	addl	$16, %esp
	testl	%eax, %eax
	js	.L39
	.loc 1 121 0 is_stmt 0 discriminator 1
	subl	$8, %esp
	leal	-36(%ebp), %eax
	pushl	%eax
	pushl	$1
	call	argstr
.LVL33:
	addl	$16, %esp
	testl	%eax, %eax
	jns	.L40
.L39:
	.loc 1 122 0 is_stmt 1
	movl	$-1, %eax
	jmp	.L48
.L40:
	.loc 1 124 0
	call	begin_op
.LVL34:
	.loc 1 125 0
	movl	-40(%ebp), %eax
	subl	$12, %esp
	pushl	%eax
	call	namei
.LVL35:
	addl	$16, %esp
	movl	%eax, -12(%ebp)
.LVL36:
	cmpl	$0, -12(%ebp)
	jne	.L42
	.loc 1 126 0
	call	end_op
.LVL37:
	.loc 1 127 0
	movl	$-1, %eax
	jmp	.L48
.LVL38:
.L42:
	.loc 1 130 0
	subl	$12, %esp
	pushl	-12(%ebp)
	call	ilock
.LVL39:
	addl	$16, %esp
	.loc 1 131 0
	movl	-12(%ebp), %eax
	movzwl	16(%eax), %eax
	cmpw	$1, %ax
	jne	.L43
	.loc 1 132 0
	subl	$12, %esp
	pushl	-12(%ebp)
	call	iunlockput
.LVL40:
	addl	$16, %esp
	.loc 1 133 0
	call	end_op
.LVL41:
	.loc 1 134 0
	movl	$-1, %eax
	jmp	.L48
.L43:
	.loc 1 137 0
	movl	-12(%ebp), %eax
	movzwl	22(%eax), %eax
	addl	$1, %eax
	movl	%eax, %edx
	movl	-12(%ebp), %eax
	movw	%dx, 22(%eax)
	.loc 1 138 0
	subl	$12, %esp
	pushl	-12(%ebp)
	call	iupdate
.LVL42:
	addl	$16, %esp
	.loc 1 139 0
	subl	$12, %esp
	pushl	-12(%ebp)
	call	iunlock
.LVL43:
	addl	$16, %esp
	.loc 1 141 0
	movl	-36(%ebp), %eax
	subl	$8, %esp
	leal	-30(%ebp), %edx
	pushl	%edx
	pushl	%eax
	call	nameiparent
.LVL44:
	addl	$16, %esp
	movl	%eax, -16(%ebp)
.LVL45:
	cmpl	$0, -16(%ebp)
	je	.L49
	.loc 1 143 0
	subl	$12, %esp
	pushl	-16(%ebp)
	call	ilock
.LVL46:
	addl	$16, %esp
	.loc 1 144 0
	movl	-16(%ebp), %eax
	movl	(%eax), %edx
	movl	-12(%ebp), %eax
	movl	(%eax), %eax
	cmpl	%eax, %edx
	jne	.L46
	.loc 1 144 0 is_stmt 0 discriminator 1
	movl	-12(%ebp), %eax
	movl	4(%eax), %eax
	subl	$4, %esp
	pushl	%eax
	leal	-30(%ebp), %eax
	pushl	%eax
	pushl	-16(%ebp)
	call	dirlink
.LVL47:
	addl	$16, %esp
	testl	%eax, %eax
	jns	.L47
.L46:
	.loc 1 145 0 is_stmt 1
	subl	$12, %esp
	pushl	-16(%ebp)
	call	iunlockput
.LVL48:
	addl	$16, %esp
	.loc 1 146 0
	jmp	.L45
.L47:
	.loc 1 148 0
	subl	$12, %esp
	pushl	-16(%ebp)
	call	iunlockput
.LVL49:
	addl	$16, %esp
	.loc 1 149 0
	subl	$12, %esp
	pushl	-12(%ebp)
	call	iput
.LVL50:
	addl	$16, %esp
	.loc 1 151 0
	call	end_op
.LVL51:
	.loc 1 153 0
	movl	$0, %eax
	jmp	.L48
.LVL52:
.L49:
	.loc 1 142 0
	nop
.LVL53:
.L45:
	.loc 1 156 0
	subl	$12, %esp
	pushl	-12(%ebp)
	call	ilock
.LVL54:
	addl	$16, %esp
	.loc 1 157 0
	movl	-12(%ebp), %eax
	movzwl	22(%eax), %eax
	subl	$1, %eax
	movl	%eax, %edx
	movl	-12(%ebp), %eax
	movw	%dx, 22(%eax)
	.loc 1 158 0
	subl	$12, %esp
	pushl	-12(%ebp)
	call	iupdate
.LVL55:
	addl	$16, %esp
	.loc 1 159 0
	subl	$12, %esp
	pushl	-12(%ebp)
	call	iunlockput
.LVL56:
	addl	$16, %esp
	.loc 1 160 0
	call	end_op
.LVL57:
	.loc 1 161 0
	movl	$-1, %eax
.LVL58:
.L48:
	.loc 1 162 0 discriminator 1
	leave
.LCFI23:
	.cfi_restore 5
	.cfi_def_cfa 4, 4
	ret
	.cfi_endproc
.LFE7:
	.size	sys_link, .-sys_link
	.section	.rodata
.LC0:
	.string	"isdirempty: readi"
	.text
	.type	isdirempty, @function
isdirempty:
.LFB8:
	.loc 1 167 0
	.cfi_startproc
.LVL59:
	pushl	%ebp
.LCFI24:
	.cfi_def_cfa_offset 8
	.cfi_offset 5, -8
	movl	%esp, %ebp
.LCFI25:
	.cfi_def_cfa_register 5
	subl	$40, %esp
	.loc 1 171 0
	movl	$32, -12(%ebp)
.LVL60:
	jmp	.L51
.LVL61:
.L55:
	.loc 1 172 0
	movl	-12(%ebp), %eax
.LVL62:
	pushl	$16
	pushl	%eax
	leal	-28(%ebp), %eax
	pushl	%eax
	pushl	8(%ebp)
	call	readi
.LVL63:
	addl	$16, %esp
	cmpl	$16, %eax
	je	.L52
	.loc 1 173 0
	subl	$12, %esp
	pushl	$.LC0
	call	panic
.LVL64:
.L52:
	.loc 1 174 0
	movzwl	-28(%ebp), %eax
	testw	%ax, %ax
	je	.L53
	.loc 1 175 0
	movl	$0, %eax
	jmp	.L56
.L53:
	.loc 1 171 0 discriminator 2
	movl	-12(%ebp), %eax
	addl	$16, %eax
	movl	%eax, -12(%ebp)
.LVL65:
.L51:
	.loc 1 171 0 is_stmt 0 discriminator 1
	movl	8(%ebp), %eax
	movl	24(%eax), %edx
	movl	-12(%ebp), %eax
	cmpl	%eax, %edx
	ja	.L55
	.loc 1 177 0 is_stmt 1
	movl	$1, %eax
.L56:
	.loc 1 178 0 discriminator 1
	leave
.LCFI26:
	.cfi_restore 5
	.cfi_def_cfa 4, 4
	ret
	.cfi_endproc
.LFE8:
	.size	isdirempty, .-isdirempty
	.section	.rodata
.LC1:
	.string	"."
.LC2:
	.string	".."
.LC3:
	.string	"unlink: nlink < 1"
.LC4:
	.string	"unlink: writei"
	.text
	.globl	sys_unlink
	.type	sys_unlink, @function
sys_unlink:
.LFB9:
	.loc 1 183 0
	.cfi_startproc
	pushl	%ebp
.LCFI27:
	.cfi_def_cfa_offset 8
	.cfi_offset 5, -8
	movl	%esp, %ebp
.LCFI28:
	.cfi_def_cfa_register 5
	subl	$56, %esp
	.loc 1 189 0
	subl	$8, %esp
	leal	-52(%ebp), %eax
	pushl	%eax
	pushl	$0
	call	argstr
.LVL66:
	addl	$16, %esp
	testl	%eax, %eax
	jns	.L58
	.loc 1 190 0
	movl	$-1, %eax
	jmp	.L67
.L58:
	.loc 1 192 0
	call	begin_op
.LVL67:
	.loc 1 193 0
	movl	-52(%ebp), %eax
	subl	$8, %esp
	leal	-46(%ebp), %edx
	pushl	%edx
	pushl	%eax
	call	nameiparent
.LVL68:
	addl	$16, %esp
	movl	%eax, -12(%ebp)
.LVL69:
	cmpl	$0, -12(%ebp)
	jne	.L60
	.loc 1 194 0
	call	end_op
.LVL70:
	.loc 1 195 0
	movl	$-1, %eax
	jmp	.L67
.LVL71:
.L60:
	.loc 1 198 0
	subl	$12, %esp
	pushl	-12(%ebp)
	call	ilock
.LVL72:
	addl	$16, %esp
	.loc 1 201 0
	subl	$8, %esp
	pushl	$.LC1
	leal	-46(%ebp), %eax
	pushl	%eax
	call	namecmp
.LVL73:
	addl	$16, %esp
	testl	%eax, %eax
	je	.L61
	.loc 1 201 0 is_stmt 0 discriminator 1
	subl	$8, %esp
	pushl	$.LC2
	leal	-46(%ebp), %eax
	pushl	%eax
	call	namecmp
.LVL74:
	addl	$16, %esp
	testl	%eax, %eax
	je	.L61
	.loc 1 204 0 is_stmt 1
	subl	$4, %esp
	leal	-56(%ebp), %eax
	pushl	%eax
	leal	-46(%ebp), %eax
	pushl	%eax
	pushl	-12(%ebp)
	call	dirlookup
.LVL75:
	addl	$16, %esp
	movl	%eax, -16(%ebp)
.LVL76:
	cmpl	$0, -16(%ebp)
	je	.L68
	.loc 1 206 0
	subl	$12, %esp
	pushl	-16(%ebp)
	call	ilock
.LVL77:
	addl	$16, %esp
	.loc 1 208 0
	movl	-16(%ebp), %eax
	movzwl	22(%eax), %eax
	testw	%ax, %ax
	jg	.L63
	.loc 1 209 0
	subl	$12, %esp
	pushl	$.LC3
	call	panic
.LVL78:
.L63:
	.loc 1 210 0
	movl	-16(%ebp), %eax
	movzwl	16(%eax), %eax
	cmpw	$1, %ax
	jne	.L64
	.loc 1 210 0 is_stmt 0 discriminator 1
	subl	$12, %esp
	pushl	-16(%ebp)
	call	isdirempty
.LVL79:
	addl	$16, %esp
	testl	%eax, %eax
	jne	.L64
	.loc 1 211 0 is_stmt 1
	subl	$12, %esp
	pushl	-16(%ebp)
	call	iunlockput
.LVL80:
	addl	$16, %esp
	.loc 1 212 0
	jmp	.L61
.L64:
	.loc 1 215 0
	subl	$4, %esp
	pushl	$16
	pushl	$0
	leal	-32(%ebp), %eax
	pushl	%eax
	call	memset
.LVL81:
	addl	$16, %esp
	.loc 1 216 0
	movl	-56(%ebp), %eax
	pushl	$16
	pushl	%eax
	leal	-32(%ebp), %eax
	pushl	%eax
	pushl	-12(%ebp)
	call	writei
.LVL82:
	addl	$16, %esp
	cmpl	$16, %eax
	je	.L65
	.loc 1 217 0
	subl	$12, %esp
	pushl	$.LC4
	call	panic
.LVL83:
.L65:
	.loc 1 218 0
	movl	-16(%ebp), %eax
	movzwl	16(%eax), %eax
	cmpw	$1, %ax
	jne	.L66
	.loc 1 219 0
	movl	-12(%ebp), %eax
	movzwl	22(%eax), %eax
	subl	$1, %eax
	movl	%eax, %edx
	movl	-12(%ebp), %eax
	movw	%dx, 22(%eax)
	.loc 1 220 0
	subl	$12, %esp
	pushl	-12(%ebp)
	call	iupdate
.LVL84:
	addl	$16, %esp
.L66:
	.loc 1 222 0
	subl	$12, %esp
	pushl	-12(%ebp)
	call	iunlockput
.LVL85:
	addl	$16, %esp
	.loc 1 224 0
	movl	-16(%ebp), %eax
	movzwl	22(%eax), %eax
	subl	$1, %eax
	movl	%eax, %edx
	movl	-16(%ebp), %eax
	movw	%dx, 22(%eax)
	.loc 1 225 0
	subl	$12, %esp
	pushl	-16(%ebp)
	call	iupdate
.LVL86:
	addl	$16, %esp
	.loc 1 226 0
	subl	$12, %esp
	pushl	-16(%ebp)
	call	iunlockput
.LVL87:
	addl	$16, %esp
	.loc 1 228 0
	call	end_op
.LVL88:
	.loc 1 230 0
	movl	$0, %eax
	jmp	.L67
.LVL89:
.L68:
	.loc 1 205 0
	nop
.LVL90:
.L61:
	.loc 1 233 0
	subl	$12, %esp
	pushl	-12(%ebp)
	call	iunlockput
.LVL91:
	addl	$16, %esp
	.loc 1 234 0
	call	end_op
.LVL92:
	.loc 1 235 0
	movl	$-1, %eax
.LVL93:
.L67:
	.loc 1 236 0 discriminator 1
	leave
.LCFI29:
	.cfi_restore 5
	.cfi_def_cfa 4, 4
	ret
	.cfi_endproc
.LFE9:
	.size	sys_unlink, .-sys_unlink
	.section	.rodata
.LC5:
	.string	"create: ialloc"
.LC6:
	.string	"create dots"
.LC7:
	.string	"create: dirlink"
	.text
	.type	create, @function
create:
.LFB10:
	.loc 1 240 0
	.cfi_startproc
.LVL94:
	pushl	%ebp
.LCFI30:
	.cfi_def_cfa_offset 8
	.cfi_offset 5, -8
	movl	%esp, %ebp
.LCFI31:
	.cfi_def_cfa_register 5
	subl	$56, %esp
	movl	12(%ebp), %ecx
	movl	16(%ebp), %edx
	movl	20(%ebp), %eax
	movw	%cx, -44(%ebp)
	movw	%dx, -48(%ebp)
	movw	%ax, -52(%ebp)
	.loc 1 245 0
	subl	$8, %esp
	leal	-34(%ebp), %eax
	pushl	%eax
	pushl	8(%ebp)
	call	nameiparent
.LVL95:
	addl	$16, %esp
	movl	%eax, -12(%ebp)
.LVL96:
	cmpl	$0, -12(%ebp)
	jne	.L70
	.loc 1 246 0
	movl	$0, %eax
.LVL97:
	jmp	.L78
.LVL98:
.L70:
	.loc 1 247 0
	subl	$12, %esp
	pushl	-12(%ebp)
	call	ilock
.LVL99:
	addl	$16, %esp
	.loc 1 249 0
	subl	$4, %esp
	leal	-20(%ebp), %eax
	pushl	%eax
	leal	-34(%ebp), %eax
	pushl	%eax
	pushl	-12(%ebp)
	call	dirlookup
.LVL100:
	addl	$16, %esp
	movl	%eax, -16(%ebp)
.LVL101:
	cmpl	$0, -16(%ebp)
	je	.L72
	.loc 1 250 0
	subl	$12, %esp
	pushl	-12(%ebp)
	call	iunlockput
.LVL102:
	addl	$16, %esp
	.loc 1 251 0
	subl	$12, %esp
	pushl	-16(%ebp)
	call	ilock
.LVL103:
	addl	$16, %esp
	.loc 1 252 0
	cmpw	$2, -44(%ebp)
	jne	.L73
	.loc 1 252 0 is_stmt 0 discriminator 1
	movl	-16(%ebp), %eax
	movzwl	16(%eax), %eax
	cmpw	$2, %ax
	jne	.L73
	.loc 1 253 0 is_stmt 1
	movl	-16(%ebp), %eax
	jmp	.L78
.L73:
	.loc 1 254 0
	subl	$12, %esp
	pushl	-16(%ebp)
	call	iunlockput
.LVL104:
	addl	$16, %esp
	.loc 1 255 0
	movl	$0, %eax
	jmp	.L78
.LVL105:
.L72:
	.loc 1 258 0
	movswl	-44(%ebp), %edx
	movl	-12(%ebp), %eax
.LVL106:
	movl	(%eax), %eax
	subl	$8, %esp
	pushl	%edx
	pushl	%eax
	call	ialloc
.LVL107:
	addl	$16, %esp
	movl	%eax, -16(%ebp)
.LVL108:
	cmpl	$0, -16(%ebp)
	jne	.L74
	.loc 1 259 0
	subl	$12, %esp
	pushl	$.LC5
	call	panic
.LVL109:
.L74:
	.loc 1 261 0
	subl	$12, %esp
	pushl	-16(%ebp)
	call	ilock
.LVL110:
	addl	$16, %esp
	.loc 1 262 0
	movl	-16(%ebp), %eax
	movzwl	-48(%ebp), %edx
	movw	%dx, 18(%eax)
	.loc 1 263 0
	movl	-16(%ebp), %eax
	movzwl	-52(%ebp), %edx
	movw	%dx, 20(%eax)
	.loc 1 264 0
	movl	-16(%ebp), %eax
	movw	$1, 22(%eax)
	.loc 1 265 0
	subl	$12, %esp
	pushl	-16(%ebp)
	call	iupdate
.LVL111:
	addl	$16, %esp
	.loc 1 267 0
	cmpw	$1, -44(%ebp)
	jne	.L75
	.loc 1 268 0
	movl	-12(%ebp), %eax
	movzwl	22(%eax), %eax
	addl	$1, %eax
	movl	%eax, %edx
	movl	-12(%ebp), %eax
	movw	%dx, 22(%eax)
	.loc 1 269 0
	subl	$12, %esp
	pushl	-12(%ebp)
	call	iupdate
.LVL112:
	addl	$16, %esp
	.loc 1 271 0
	movl	-16(%ebp), %eax
	movl	4(%eax), %eax
	subl	$4, %esp
	pushl	%eax
	pushl	$.LC1
	pushl	-16(%ebp)
	call	dirlink
.LVL113:
	addl	$16, %esp
	testl	%eax, %eax
	js	.L76
	.loc 1 271 0 is_stmt 0 discriminator 1
	movl	-12(%ebp), %eax
	movl	4(%eax), %eax
	subl	$4, %esp
	pushl	%eax
	pushl	$.LC2
	pushl	-16(%ebp)
	call	dirlink
.LVL114:
	addl	$16, %esp
	testl	%eax, %eax
	jns	.L75
.L76:
	.loc 1 272 0 is_stmt 1
	subl	$12, %esp
	pushl	$.LC6
	call	panic
.LVL115:
.L75:
	.loc 1 275 0
	movl	-16(%ebp), %eax
	movl	4(%eax), %eax
	subl	$4, %esp
	pushl	%eax
	leal	-34(%ebp), %eax
	pushl	%eax
	pushl	-12(%ebp)
	call	dirlink
.LVL116:
	addl	$16, %esp
	testl	%eax, %eax
	jns	.L77
	.loc 1 276 0
	subl	$12, %esp
	pushl	$.LC7
	call	panic
.LVL117:
.L77:
	.loc 1 278 0
	subl	$12, %esp
	pushl	-12(%ebp)
	call	iunlockput
.LVL118:
	addl	$16, %esp
	.loc 1 280 0
	movl	-16(%ebp), %eax
.LVL119:
.L78:
	.loc 1 281 0 discriminator 1
	leave
.LCFI32:
	.cfi_restore 5
	.cfi_def_cfa 4, 4
	ret
	.cfi_endproc
.LFE10:
	.size	create, .-create
	.globl	sys_open
	.type	sys_open, @function
sys_open:
.LFB11:
	.loc 1 285 0
	.cfi_startproc
	pushl	%ebp
.LCFI33:
	.cfi_def_cfa_offset 8
	.cfi_offset 5, -8
	movl	%esp, %ebp
.LCFI34:
	.cfi_def_cfa_register 5
	subl	$40, %esp
	.loc 1 291 0
	subl	$8, %esp
	leal	-24(%ebp), %eax
	pushl	%eax
	pushl	$0
	call	argstr
.LVL120:
	addl	$16, %esp
	testl	%eax, %eax
	js	.L80
	.loc 1 291 0 is_stmt 0 discriminator 1
	subl	$8, %esp
	leal	-28(%ebp), %eax
	pushl	%eax
	pushl	$1
	call	argint
.LVL121:
	addl	$16, %esp
	testl	%eax, %eax
	jns	.L81
.L80:
	.loc 1 292 0 is_stmt 1
	movl	$-1, %eax
	jmp	.L92
.L81:
	.loc 1 294 0
	call	begin_op
.LVL122:
	.loc 1 296 0
	movl	-28(%ebp), %eax
	andl	$512, %eax
	testl	%eax, %eax
	je	.L83
	.loc 1 297 0
	movl	-24(%ebp), %eax
	pushl	$0
	pushl	$0
	pushl	$2
	pushl	%eax
	call	create
.LVL123:
	addl	$16, %esp
	movl	%eax, -12(%ebp)
.LVL124:
	.loc 1 298 0
	cmpl	$0, -12(%ebp)
	jne	.L84
	.loc 1 299 0
	call	end_op
.LVL125:
	.loc 1 300 0
	movl	$-1, %eax
	jmp	.L92
.LVL126:
.L83:
	.loc 1 303 0
	movl	-24(%ebp), %eax
	subl	$12, %esp
	pushl	%eax
	call	namei
.LVL127:
	addl	$16, %esp
	movl	%eax, -12(%ebp)
.LVL128:
	cmpl	$0, -12(%ebp)
	jne	.L85
	.loc 1 304 0
	call	end_op
.LVL129:
	.loc 1 305 0
	movl	$-1, %eax
	jmp	.L92
.LVL130:
.L85:
	.loc 1 307 0
	subl	$12, %esp
	pushl	-12(%ebp)
	call	ilock
.LVL131:
	addl	$16, %esp
	.loc 1 308 0
	movl	-12(%ebp), %eax
	movzwl	16(%eax), %eax
	cmpw	$1, %ax
	jne	.L84
	.loc 1 308 0 is_stmt 0 discriminator 1
	movl	-28(%ebp), %eax
	testl	%eax, %eax
	je	.L84
	.loc 1 309 0 is_stmt 1
	subl	$12, %esp
	pushl	-12(%ebp)
	call	iunlockput
.LVL132:
	addl	$16, %esp
	.loc 1 310 0
	call	end_op
.LVL133:
	.loc 1 311 0
	movl	$-1, %eax
	jmp	.L92
.L84:
	.loc 1 315 0
	call	filealloc
.LVL134:
	movl	%eax, -16(%ebp)
.LVL135:
	cmpl	$0, -16(%ebp)
	je	.L86
	.loc 1 315 0 is_stmt 0 discriminator 1
	subl	$12, %esp
	pushl	-16(%ebp)
	call	fdalloc
.LVL136:
	addl	$16, %esp
	movl	%eax, -20(%ebp)
.LVL137:
	cmpl	$0, -20(%ebp)
	jns	.L87
.LVL138:
.L86:
	.loc 1 316 0 is_stmt 1
	cmpl	$0, -16(%ebp)
	je	.L88
	.loc 1 317 0
	subl	$12, %esp
	pushl	-16(%ebp)
	call	fileclose
.LVL139:
	addl	$16, %esp
.L88:
	.loc 1 318 0
	subl	$12, %esp
	pushl	-12(%ebp)
	call	iunlockput
.LVL140:
	addl	$16, %esp
	.loc 1 319 0
	call	end_op
.LVL141:
	.loc 1 320 0
	movl	$-1, %eax
	jmp	.L92
.LVL142:
.L87:
	.loc 1 322 0
	subl	$12, %esp
	pushl	-12(%ebp)
	call	iunlock
.LVL143:
	addl	$16, %esp
	.loc 1 323 0
	call	end_op
.LVL144:
	.loc 1 325 0
	movl	-16(%ebp), %eax
	movl	$2, (%eax)
	.loc 1 326 0
	movl	-16(%ebp), %eax
	movl	-12(%ebp), %edx
	movl	%edx, 16(%eax)
	.loc 1 327 0
	movl	-16(%ebp), %eax
	movl	$0, 20(%eax)
	.loc 1 328 0
	movl	-28(%ebp), %eax
	andl	$1, %eax
	testl	%eax, %eax
	sete	%al
	movl	%eax, %edx
	movl	-16(%ebp), %eax
	movb	%dl, 8(%eax)
	.loc 1 329 0
	movl	-28(%ebp), %eax
	andl	$1, %eax
	testl	%eax, %eax
	jne	.L89
	.loc 1 329 0 is_stmt 0 discriminator 2
	movl	-28(%ebp), %eax
	andl	$2, %eax
	testl	%eax, %eax
	je	.L90
.L89:
	.loc 1 329 0 discriminator 3
	movl	$1, %eax
	jmp	.L91
.L90:
	.loc 1 329 0 discriminator 4
	movl	$0, %eax
.L91:
	.loc 1 329 0 discriminator 6
	movl	%eax, %edx
	movl	-16(%ebp), %eax
	movb	%dl, 9(%eax)
	.loc 1 330 0 is_stmt 1 discriminator 6
	movl	-20(%ebp), %eax
.LVL145:
.L92:
	.loc 1 331 0 discriminator 1
	leave
.LCFI35:
	.cfi_restore 5
	.cfi_def_cfa 4, 4
	ret
	.cfi_endproc
.LFE11:
	.size	sys_open, .-sys_open
	.globl	sys_mkdir
	.type	sys_mkdir, @function
sys_mkdir:
.LFB12:
	.loc 1 335 0
	.cfi_startproc
	pushl	%ebp
.LCFI36:
	.cfi_def_cfa_offset 8
	.cfi_offset 5, -8
	movl	%esp, %ebp
.LCFI37:
	.cfi_def_cfa_register 5
	subl	$24, %esp
	.loc 1 339 0
	call	begin_op
.LVL146:
	.loc 1 340 0
	subl	$8, %esp
	leal	-16(%ebp), %eax
	pushl	%eax
	pushl	$0
	call	argstr
.LVL147:
	addl	$16, %esp
	testl	%eax, %eax
	js	.L94
	.loc 1 340 0 is_stmt 0 discriminator 1
	movl	-16(%ebp), %eax
	pushl	$0
	pushl	$0
	pushl	$1
	pushl	%eax
	call	create
.LVL148:
	addl	$16, %esp
	movl	%eax, -12(%ebp)
.LVL149:
	cmpl	$0, -12(%ebp)
	jne	.L95
.LVL150:
.L94:
	.loc 1 341 0 is_stmt 1
	call	end_op
.LVL151:
	.loc 1 342 0
	movl	$-1, %eax
	jmp	.L97
.LVL152:
.L95:
	.loc 1 344 0
	subl	$12, %esp
	pushl	-12(%ebp)
	call	iunlockput
.LVL153:
	addl	$16, %esp
	.loc 1 345 0
	call	end_op
.LVL154:
	.loc 1 346 0
	movl	$0, %eax
.LVL155:
.L97:
	.loc 1 347 0 discriminator 1
	leave
.LCFI38:
	.cfi_restore 5
	.cfi_def_cfa 4, 4
	ret
	.cfi_endproc
.LFE12:
	.size	sys_mkdir, .-sys_mkdir
	.globl	sys_mknod
	.type	sys_mknod, @function
sys_mknod:
.LFB13:
	.loc 1 351 0
	.cfi_startproc
	pushl	%ebp
.LCFI39:
	.cfi_def_cfa_offset 8
	.cfi_offset 5, -8
	movl	%esp, %ebp
.LCFI40:
	.cfi_def_cfa_register 5
	subl	$40, %esp
	.loc 1 357 0
	call	begin_op
.LVL156:
	.loc 1 358 0
	subl	$8, %esp
	leal	-20(%ebp), %eax
	pushl	%eax
	pushl	$0
	call	argstr
.LVL157:
	addl	$16, %esp
	movl	%eax, -12(%ebp)
.LVL158:
	cmpl	$0, -12(%ebp)
	js	.L99
	.loc 1 359 0 discriminator 1
	subl	$8, %esp
	leal	-24(%ebp), %eax
.LVL159:
	pushl	%eax
	pushl	$1
	call	argint
.LVL160:
	addl	$16, %esp
	.loc 1 358 0 discriminator 1
	testl	%eax, %eax
	js	.L99
	.loc 1 360 0
	subl	$8, %esp
	leal	-28(%ebp), %eax
	pushl	%eax
	pushl	$2
	call	argint
.LVL161:
	addl	$16, %esp
	.loc 1 359 0
	testl	%eax, %eax
	js	.L99
	.loc 1 361 0
	movl	-28(%ebp), %eax
	movswl	%ax, %ecx
	movl	-24(%ebp), %eax
	movswl	%ax, %edx
	movl	-20(%ebp), %eax
	.loc 1 360 0
	pushl	%ecx
	pushl	%edx
	pushl	$3
	pushl	%eax
	call	create
.LVL162:
	addl	$16, %esp
	movl	%eax, -16(%ebp)
.LVL163:
	cmpl	$0, -16(%ebp)
	jne	.L100
.LVL164:
.L99:
	.loc 1 362 0
	call	end_op
.LVL165:
	.loc 1 363 0
	movl	$-1, %eax
	jmp	.L102
.LVL166:
.L100:
	.loc 1 365 0
	subl	$12, %esp
	pushl	-16(%ebp)
	call	iunlockput
.LVL167:
	addl	$16, %esp
	.loc 1 366 0
	call	end_op
.LVL168:
	.loc 1 367 0
	movl	$0, %eax
.LVL169:
.L102:
	.loc 1 368 0 discriminator 1
	leave
.LCFI41:
	.cfi_restore 5
	.cfi_def_cfa 4, 4
.LVL170:
	ret
	.cfi_endproc
.LFE13:
	.size	sys_mknod, .-sys_mknod
	.globl	sys_chdir
	.type	sys_chdir, @function
sys_chdir:
.LFB14:
	.loc 1 372 0
	.cfi_startproc
	pushl	%ebp
.LCFI42:
	.cfi_def_cfa_offset 8
	.cfi_offset 5, -8
	movl	%esp, %ebp
.LCFI43:
	.cfi_def_cfa_register 5
	subl	$24, %esp
	.loc 1 376 0
	call	begin_op
.LVL171:
	.loc 1 377 0
	subl	$8, %esp
	leal	-16(%ebp), %eax
	pushl	%eax
	pushl	$0
	call	argstr
.LVL172:
	addl	$16, %esp
	testl	%eax, %eax
	js	.L104
	.loc 1 377 0 is_stmt 0 discriminator 1
	movl	-16(%ebp), %eax
	subl	$12, %esp
	pushl	%eax
	call	namei
.LVL173:
	addl	$16, %esp
	movl	%eax, -12(%ebp)
.LVL174:
	cmpl	$0, -12(%ebp)
	jne	.L105
.LVL175:
.L104:
	.loc 1 378 0 is_stmt 1
	call	end_op
.LVL176:
	.loc 1 379 0
	movl	$-1, %eax
	jmp	.L108
.LVL177:
.L105:
	.loc 1 381 0
	subl	$12, %esp
	pushl	-12(%ebp)
	call	ilock
.LVL178:
	addl	$16, %esp
	.loc 1 382 0
	movl	-12(%ebp), %eax
	movzwl	16(%eax), %eax
	cmpw	$1, %ax
	je	.L107
	.loc 1 383 0
	subl	$12, %esp
	pushl	-12(%ebp)
	call	iunlockput
.LVL179:
	addl	$16, %esp
	.loc 1 384 0
	call	end_op
.LVL180:
	.loc 1 385 0
	movl	$-1, %eax
	jmp	.L108
.L107:
	.loc 1 387 0
	subl	$12, %esp
	pushl	-12(%ebp)
	call	iunlock
.LVL181:
	addl	$16, %esp
	.loc 1 388 0
	movl	%gs:4, %eax
	movl	104(%eax), %eax
	subl	$12, %esp
	pushl	%eax
	call	iput
.LVL182:
	addl	$16, %esp
	.loc 1 389 0
	call	end_op
.LVL183:
	.loc 1 390 0
	movl	%gs:4, %eax
	movl	-12(%ebp), %edx
	movl	%edx, 104(%eax)
	.loc 1 391 0
	movl	$0, %eax
.LVL184:
.L108:
	.loc 1 392 0 discriminator 1
	leave
.LCFI44:
	.cfi_restore 5
	.cfi_def_cfa 4, 4
	ret
	.cfi_endproc
.LFE14:
	.size	sys_chdir, .-sys_chdir
	.globl	sys_exec
	.type	sys_exec, @function
sys_exec:
.LFB15:
	.loc 1 396 0
	.cfi_startproc
	pushl	%ebp
.LCFI45:
	.cfi_def_cfa_offset 8
	.cfi_offset 5, -8
	movl	%esp, %ebp
.LCFI46:
	.cfi_def_cfa_register 5
	subl	$152, %esp
	.loc 1 401 0
	subl	$8, %esp
	leal	-16(%ebp), %eax
	pushl	%eax
	pushl	$0
	call	argstr
.LVL185:
	addl	$16, %esp
	testl	%eax, %eax
	js	.L110
	.loc 1 401 0 is_stmt 0 discriminator 1
	subl	$8, %esp
	leal	-148(%ebp), %eax
	pushl	%eax
	pushl	$1
	call	argint
.LVL186:
	addl	$16, %esp
	testl	%eax, %eax
	jns	.L111
.L110:
	.loc 1 402 0 is_stmt 1
	movl	$-1, %eax
	jmp	.L119
.L111:
	.loc 1 404 0
	subl	$4, %esp
	pushl	$128
	pushl	$0
	leal	-144(%ebp), %eax
	pushl	%eax
	call	memset
.LVL187:
	addl	$16, %esp
	.loc 1 405 0
	movl	$0, -12(%ebp)
.LVL188:
.L118:
	.loc 1 406 0
	movl	-12(%ebp), %eax
	cmpl	$31, %eax
	jbe	.L113
	.loc 1 407 0
	movl	$-1, %eax
	jmp	.L119
.LVL189:
.L113:
	.loc 1 408 0
	movl	-12(%ebp), %eax
.LVL190:
	sall	$2, %eax
	movl	%eax, %edx
	movl	-148(%ebp), %eax
	addl	%eax, %edx
	subl	$8, %esp
	leal	-152(%ebp), %eax
	pushl	%eax
	pushl	%edx
	call	fetchint
.LVL191:
	addl	$16, %esp
	testl	%eax, %eax
	jns	.L114
	.loc 1 409 0
	movl	$-1, %eax
	jmp	.L119
.L114:
	.loc 1 410 0
	movl	-152(%ebp), %eax
	testl	%eax, %eax
	jne	.L115
	.loc 1 411 0
	movl	-12(%ebp), %eax
	movl	$0, -144(%ebp,%eax,4)
	.loc 1 412 0
	nop
	.loc 1 417 0
	movl	-16(%ebp), %eax
	subl	$8, %esp
	leal	-144(%ebp), %edx
	pushl	%edx
	pushl	%eax
	call	exec
.LVL192:
	addl	$16, %esp
	jmp	.L119
.L115:
	.loc 1 414 0
	leal	-144(%ebp), %eax
	movl	-12(%ebp), %edx
	sall	$2, %edx
	addl	%eax, %edx
	movl	-152(%ebp), %eax
	subl	$8, %esp
	pushl	%edx
	pushl	%eax
	call	fetchstr
.LVL193:
	addl	$16, %esp
	testl	%eax, %eax
	jns	.L117
	.loc 1 415 0
	movl	$-1, %eax
	jmp	.L119
.L117:
	.loc 1 405 0
	addl	$1, -12(%ebp)
	.loc 1 416 0
	jmp	.L118
.LVL194:
.L119:
	.loc 1 418 0 discriminator 1
	leave
.LCFI47:
	.cfi_restore 5
	.cfi_def_cfa 4, 4
	ret
	.cfi_endproc
.LFE15:
	.size	sys_exec, .-sys_exec
	.globl	sys_pipe
	.type	sys_pipe, @function
sys_pipe:
.LFB16:
	.loc 1 422 0
	.cfi_startproc
	pushl	%ebp
.LCFI48:
	.cfi_def_cfa_offset 8
	.cfi_offset 5, -8
	movl	%esp, %ebp
.LCFI49:
	.cfi_def_cfa_register 5
	subl	$40, %esp
	.loc 1 427 0
	subl	$4, %esp
	pushl	$8
	leal	-20(%ebp), %eax
	pushl	%eax
	pushl	$0
	call	argptr
.LVL195:
	addl	$16, %esp
	testl	%eax, %eax
	jns	.L121
	.loc 1 428 0
	movl	$-1, %eax
	jmp	.L127
.L121:
	.loc 1 429 0
	subl	$8, %esp
	leal	-28(%ebp), %eax
	pushl	%eax
	leal	-24(%ebp), %eax
	pushl	%eax
	call	pipealloc
.LVL196:
	addl	$16, %esp
	testl	%eax, %eax
	jns	.L123
	.loc 1 430 0
	movl	$-1, %eax
	jmp	.L127
.L123:
	.loc 1 431 0
	movl	$-1, -12(%ebp)
.LVL197:
	.loc 1 432 0
	movl	-24(%ebp), %eax
	subl	$12, %esp
	pushl	%eax
	call	fdalloc
.LVL198:
	addl	$16, %esp
	movl	%eax, -12(%ebp)
.LVL199:
	cmpl	$0, -12(%ebp)
	js	.L124
	.loc 1 432 0 is_stmt 0 discriminator 1
	movl	-28(%ebp), %eax
.LVL200:
	subl	$12, %esp
	pushl	%eax
	call	fdalloc
.LVL201:
	addl	$16, %esp
	movl	%eax, -16(%ebp)
.LVL202:
	cmpl	$0, -16(%ebp)
	jns	.L125
.LVL203:
.L124:
	.loc 1 433 0 is_stmt 1
	cmpl	$0, -12(%ebp)
	js	.L126
	.loc 1 434 0
	movl	%gs:4, %eax
	movl	-12(%ebp), %edx
	addl	$8, %edx
	movl	$0, 8(%eax,%edx,4)
.L126:
	.loc 1 435 0
	movl	-24(%ebp), %eax
	subl	$12, %esp
	pushl	%eax
	call	fileclose
.LVL204:
	addl	$16, %esp
	.loc 1 436 0
	movl	-28(%ebp), %eax
	subl	$12, %esp
	pushl	%eax
	call	fileclose
.LVL205:
	addl	$16, %esp
	.loc 1 437 0
	movl	$-1, %eax
	jmp	.L127
.LVL206:
.L125:
	.loc 1 439 0
	movl	-20(%ebp), %eax
.LVL207:
	movl	-12(%ebp), %edx
	movl	%edx, (%eax)
	.loc 1 440 0
	movl	-20(%ebp), %eax
	leal	4(%eax), %edx
	movl	-16(%ebp), %eax
	movl	%eax, (%edx)
	.loc 1 441 0
	movl	$0, %eax
.LVL208:
.L127:
	.loc 1 442 0 discriminator 1
	leave
.LCFI50:
	.cfi_restore 5
	.cfi_def_cfa 4, 4
	ret
	.cfi_endproc
.LFE16:
	.size	sys_pipe, .-sys_pipe
.Letext0:
	.file 2 "types.h"
	.file 3 "stat.h"
	.file 4 "proc.h"
	.file 5 "file.h"
	.file 6 "fs.h"
	.file 7 "defs.h"
	.section	.note.GNU-stack,"",@progbits
