	.file	"sysproc.c"
	.text
.Ltext0:
	.globl	sys_fork
	.type	sys_fork, @function
sys_fork:
.LFB20:
	.file 1 "sysproc.c"
	.loc 1 28 0
	.cfi_startproc
	pushl	%ebp
.LCFI0:
	.cfi_def_cfa_offset 8
	.cfi_offset 5, -8
	movl	%esp, %ebp
.LCFI1:
	.cfi_def_cfa_register 5
	subl	$8, %esp
	.loc 1 29 0
	call	fork
.LVL0:
	.loc 1 30 0
	leave
.LCFI2:
	.cfi_restore 5
	.cfi_def_cfa 4, 4
	ret
	.cfi_endproc
.LFE20:
	.size	sys_fork, .-sys_fork
	.globl	sys_exit
	.type	sys_exit, @function
sys_exit:
.LFB21:
	.loc 1 34 0
	.cfi_startproc
	pushl	%ebp
.LCFI3:
	.cfi_def_cfa_offset 8
	.cfi_offset 5, -8
	movl	%esp, %ebp
.LCFI4:
	.cfi_def_cfa_register 5
	subl	$8, %esp
	.loc 1 35 0
	call	exit
.LVL1:
	.loc 1 36 0
	movl	$0, %eax
	.loc 1 37 0
	leave
.LCFI5:
	.cfi_restore 5
	.cfi_def_cfa 4, 4
	ret
	.cfi_endproc
.LFE21:
	.size	sys_exit, .-sys_exit
	.globl	sys_wait
	.type	sys_wait, @function
sys_wait:
.LFB22:
	.loc 1 41 0
	.cfi_startproc
	pushl	%ebp
.LCFI6:
	.cfi_def_cfa_offset 8
	.cfi_offset 5, -8
	movl	%esp, %ebp
.LCFI7:
	.cfi_def_cfa_register 5
	subl	$8, %esp
	.loc 1 42 0
	call	wait
.LVL2:
	.loc 1 43 0
	leave
.LCFI8:
	.cfi_restore 5
	.cfi_def_cfa 4, 4
	ret
	.cfi_endproc
.LFE22:
	.size	sys_wait, .-sys_wait
	.globl	sys_kill
	.type	sys_kill, @function
sys_kill:
.LFB23:
	.loc 1 47 0
	.cfi_startproc
	pushl	%ebp
.LCFI9:
	.cfi_def_cfa_offset 8
	.cfi_offset 5, -8
	movl	%esp, %ebp
.LCFI10:
	.cfi_def_cfa_register 5
	subl	$24, %esp
	.loc 1 50 0
	subl	$8, %esp
	leal	-12(%ebp), %eax
	pushl	%eax
	pushl	$0
	call	argint
.LVL3:
	addl	$16, %esp
	testl	%eax, %eax
	jns	.L8
	.loc 1 51 0
	movl	$-1, %eax
	jmp	.L10
.L8:
	.loc 1 52 0
	movl	-12(%ebp), %eax
	subl	$12, %esp
	pushl	%eax
	call	kill
.LVL4:
	addl	$16, %esp
.L10:
	.loc 1 53 0 discriminator 1
	leave
.LCFI11:
	.cfi_restore 5
	.cfi_def_cfa 4, 4
	ret
	.cfi_endproc
.LFE23:
	.size	sys_kill, .-sys_kill
	.globl	sys_getpid
	.type	sys_getpid, @function
sys_getpid:
.LFB24:
	.loc 1 57 0
	.cfi_startproc
	pushl	%ebp
.LCFI12:
	.cfi_def_cfa_offset 8
	.cfi_offset 5, -8
	movl	%esp, %ebp
.LCFI13:
	.cfi_def_cfa_register 5
	.loc 1 58 0
	movl	%gs:4, %eax
	movl	16(%eax), %eax
	.loc 1 59 0
	popl	%ebp
.LCFI14:
	.cfi_restore 5
	.cfi_def_cfa 4, 4
	ret
	.cfi_endproc
.LFE24:
	.size	sys_getpid, .-sys_getpid
	.globl	sys_sbrk
	.type	sys_sbrk, @function
sys_sbrk:
.LFB25:
	.loc 1 63 0
	.cfi_startproc
	pushl	%ebp
.LCFI15:
	.cfi_def_cfa_offset 8
	.cfi_offset 5, -8
	movl	%esp, %ebp
.LCFI16:
	.cfi_def_cfa_register 5
	subl	$24, %esp
	.loc 1 67 0
	subl	$8, %esp
	leal	-16(%ebp), %eax
	pushl	%eax
	pushl	$0
	call	argint
.LVL5:
	addl	$16, %esp
	testl	%eax, %eax
	jns	.L14
	.loc 1 68 0
	movl	$-1, %eax
	jmp	.L17
.L14:
	.loc 1 69 0
	movl	%gs:4, %eax
	movl	(%eax), %eax
	movl	%eax, -12(%ebp)
.LVL6:
	.loc 1 70 0
	movl	-16(%ebp), %eax
.LVL7:
	subl	$12, %esp
	pushl	%eax
.LVL8:
	call	growproc
.LVL9:
	addl	$16, %esp
	testl	%eax, %eax
	jns	.L16
	.loc 1 71 0
	movl	$-1, %eax
	jmp	.L17
.L16:
	.loc 1 72 0
	movl	-12(%ebp), %eax
.LVL10:
.L17:
	.loc 1 73 0 discriminator 1
	leave
.LCFI17:
	.cfi_restore 5
	.cfi_def_cfa 4, 4
	ret
	.cfi_endproc
.LFE25:
	.size	sys_sbrk, .-sys_sbrk
	.globl	sys_sleep
	.type	sys_sleep, @function
sys_sleep:
.LFB26:
	.loc 1 77 0
	.cfi_startproc
	pushl	%ebp
.LCFI18:
	.cfi_def_cfa_offset 8
	.cfi_offset 5, -8
	movl	%esp, %ebp
.LCFI19:
	.cfi_def_cfa_register 5
	subl	$24, %esp
	.loc 1 81 0
	subl	$8, %esp
	leal	-16(%ebp), %eax
	pushl	%eax
	pushl	$0
	call	argint
.LVL11:
	addl	$16, %esp
	testl	%eax, %eax
	jns	.L19
	.loc 1 82 0
	movl	$-1, %eax
	jmp	.L24
.L19:
	.loc 1 83 0
	subl	$12, %esp
	pushl	$tickslock
	call	acquire
.LVL12:
	addl	$16, %esp
	.loc 1 84 0
	movl	ticks, %eax
	movl	%eax, -12(%ebp)
.LVL13:
	.loc 1 85 0
	jmp	.L21
.LVL14:
.L23:
	.loc 1 86 0
	movl	%gs:4, %eax
	movl	36(%eax), %eax
	testl	%eax, %eax
	je	.L22
	.loc 1 87 0
	subl	$12, %esp
	pushl	$tickslock
	call	release
.LVL15:
	addl	$16, %esp
	.loc 1 88 0
	movl	$-1, %eax
	jmp	.L24
.L22:
	.loc 1 90 0
	subl	$8, %esp
	pushl	$tickslock
	pushl	$ticks
	call	sleep
.LVL16:
	addl	$16, %esp
.L21:
	.loc 1 85 0
	movl	ticks, %eax
	subl	-12(%ebp), %eax
	movl	-16(%ebp), %edx
	cmpl	%edx, %eax
	jb	.L23
	.loc 1 92 0
	subl	$12, %esp
	pushl	$tickslock
	call	release
.LVL17:
	addl	$16, %esp
	.loc 1 93 0
	movl	$0, %eax
.LVL18:
.L24:
	.loc 1 94 0 discriminator 1
	leave
.LCFI20:
	.cfi_restore 5
	.cfi_def_cfa 4, 4
	ret
	.cfi_endproc
.LFE26:
	.size	sys_sleep, .-sys_sleep
	.globl	sys_uptime
	.type	sys_uptime, @function
sys_uptime:
.LFB27:
	.loc 1 100 0
	.cfi_startproc
	pushl	%ebp
.LCFI21:
	.cfi_def_cfa_offset 8
	.cfi_offset 5, -8
	movl	%esp, %ebp
.LCFI22:
	.cfi_def_cfa_register 5
	subl	$24, %esp
	.loc 1 103 0
	subl	$12, %esp
	pushl	$tickslock
	call	acquire
.LVL19:
	addl	$16, %esp
	.loc 1 104 0
	movl	ticks, %eax
	movl	%eax, -12(%ebp)
.LVL20:
	.loc 1 105 0
	subl	$12, %esp
	pushl	$tickslock
	call	release
.LVL21:
	addl	$16, %esp
	.loc 1 106 0
	movl	-12(%ebp), %eax
	.loc 1 107 0
	leave
.LCFI23:
	.cfi_restore 5
	.cfi_def_cfa 4, 4
.LVL22:
	ret
	.cfi_endproc
.LFE27:
	.size	sys_uptime, .-sys_uptime
.Letext0:
	.file 2 "types.h"
	.file 3 "x86.h"
	.file 4 "proc.h"
	.file 5 "defs.h"
	.section	.note.GNU-stack,"",@progbits
